(dp0
S''
p1
I01
sV17968707
p2
I00
sV11465053
p3
I00
sV18172501
p4
I00
sV20587024
p5
I00
sV27055267
p6
I00
sV27358602
p7
I00
sV18621757
p8
I00
sV16236429
p9
I00
sV20352489
p10
I00
sV19843607
p11
I00
sV21964329
p12
I00
sV25635122
p13
I00
sV10427017
p14
I00
sV20950480
p15
I00
sV19282977
p16
I00
sV13717628
p17
I00
sV12673766
p18
I00
sV17031533
p19
I00
sV23157406
p20
I00
sV9045833
p21
I00
sV25919029
p22
I00
sV15975601
p23
I00
sV19056727
p24
I00
sV23046267
p25
I00
sV17932063
p26
I00
sV18978789
p27
I00
sV23062430
p28
I00
sV11313139
p29
I00
sV21814274
p30
I00
sV23131208
p31
I00
sV23420771
p32
I00
sV5310029
p33
I00
sV9744112
p34
I00
sV2630804
p35
I00
sV19591881
p36
I00
sV11090624
p37
I00
sV17139324
p38
I00
sV2630803
p39
I00
sV14992503
p40
I00
sV20057383
p41
I00
sV19575561
p42
I00
sV26076725
p43
I00
sV12871098
p44
I00
sV26542567
p45
I00
sV27311813
p46
I00
sS'25618865'
p47
I01
sV21918980
p48
I00
sV12219076
p49
I00
sV16188402
p50
I00
sV23447050
p51
I00
sV21670981
p52
I00
sV17661516
p53
I00
sV18277384
p54
I00
sV19010556
p55
I00
sV22209109
p56
I00
sV8710411
p57
I00
sV8889320
p58
I00
sV22644330
p59
I00
sV12364805
p60
I00
sV11796225
p61
I00
sV16195792
p62
I00
sV21713281
p63
I00
sV15372215
p64
I00
sV18458946
p65
I00
sV21475195
p66
I00
sV16024727
p67
I00
sV15568985
p68
I00
sV17068089
p69
I00
sV22142339
p70
I00
sV12453446
p71
I00
sV25367004
p72
I00
sV19666612
p73
I00
sV10514263
p74
I00
sV9153195
p75
I00
sV7747941
p76
I00
sV18808699
p77
I00
sV12351682
p78
I00
sV22548736
p79
I01
sV19156357
p80
I00
sV20124092
p81
I00
sV18533713
p82
I00
sV10364169
p83
I00
sV17556793
p84
I00
sV18533714
p85
I00
sV11127996
p86
I00
sV7814334
p87
I00
sV21646454
p88
I00
sV20118918
p89
I00
sV15522866
p90
I00
sV16870762
p91
I00
sV16927085
p92
I00
sV21325300
p93
I00
sV21724998
p94
I00
sV9343345
p95
I00
sV21747784
p96
I00
sV18767191
p97
I01
sV11474067
p98
I00
sV22080510
p99
I00
sV20065026
p100
I00
sV18549976
p101
I00
sV18549975
p102
I00
sV22348240
p103
I00
sV22695696
p104
I00
sV6696415
p105
I00
sV21236981
p106
I00
sS'21474551'
p107
I01
sV24957647
p108
I00
sV22699233
p109
I00
sV19787431
p110
I00
sV21414992
p111
I00
sV22102589
p112
I00
sV1436739
p113
I00
sV23377891
p114
I00
sV11263574
p115
I00
sV10592235
p116
I00
sV19214212
p117
I00
sV22955879
p118
I00
sV23173711
p119
I00
sV12234732
p120
I00
sV23898195
p121
I00
sV18551704
p122
I00
sV25988163
p123
I00
sV23177152
p124
I00
sV11818558
p125
I00
sV24163337
p126
I00
sS'24628959'
p127
I01
sV15479782
p128
I00
sV23121761
p129
I00
sV20134058
p130
I00
sV22952675
p131
I00
sV15590623
p132
I00
sV11889105
p133
I00
sV21253872
p134
I00
sV21624498
p135
I00
sV15962337
p136
I00
sV15962336
p137
I00
sV21483480
p138
I00
sV21704158
p139
I00
sV15848278
p140
I00
sV15549269
p141
I00
sV17408794
p142
I00
sV22300758
p143
I00
sV21358636
p144
I00
sV20540110
p145
I00
sV22194963
p146
I00
sV18981252
p147
I00
sV20979621
p148
I00
sV14757824
p149
I00
sV18811941
p150
I00
sV26694030
p151
I00
sV21559116
p152
I00
sV18426954
p153
I00
sV17348836
p154
I00
sV18803686
p155
I00
sV8993858
p156
I00
sV24371155
p157
I00
sV20019688
p158
I00
sV23184849
p159
I00
sV22424225
p160
I00
sV22139502
p161
I00
sV20044452
p162
I00
sV22139506
p163
I00
sV18619439
p164
I00
sV17620040
p165
I00
sV19076237
p166
I00
sV26108500
p167
I00
sV19118360
p168
I00
sV26614658
p169
I00
sV18574146
p170
I00
sV20305270
p171
I00
sV16873524
p172
I00
sV22963408
p173
I00
sV20876091
p174
I00
sV14618563
p175
I00
sV12368870
p176
I00
sV22844400
p177
I00
sV11708855
p178
I00
sV12748633
p179
I00
sV14617778
p180
I00
sV12565943
p181
I00
sV11125067
p182
I00
sV20534465
p183
I00
sV9023360
p184
I00
sV12401216
p185
I00
sV16591901
p186
I00
sV25184604
p187
I00
sV27112128
p188
I00
sV23224588
p189
I00
sV2115763
p190
I00
sV17116241
p191
I00
sV19855104
p192
I00
sV20033401
p193
I00
sV17543097
p194
I00
sV14708117
p195
I00
sV25699068
p196
I00
sV1939111
p197
I00
sV25315283
p198
I00
sV10891285
p199
I00
sV18216144
p200
I00
sV17580095
p201
I00
sV15084509
p202
I00
sV19282964
p203
I00
sV18081590
p204
I00
sV7054151
p205
I00
sV10553282
p206
I00
sV23097129
p207
I00
sV17439666
p208
I00
sV23345430
p209
I00
sV23139423
p210
I00
sV10587658
p211
I00
sV12724375
p212
I00
sS'18682254'
p213
I01
sV16199581
p214
I00
sV22138494
p215
I00
sV15196499
p216
I01
sV25883286
p217
I00
sS'23110428'
p218
I01
sV18635573
p219
I00
sV23032445
p220
I00
sV14550295
p221
I00
sV12946407
p222
I00
sV11752248
p223
I00
sV14668220
p224
I00
sV25075834
p225
I00
sV23161693
p226
I00
sV14992514
p227
I00
sV14992516
p228
I00
sV12000771
p229
I00
sV21921927
p230
I00
sV26001086
p231
I00
sV19881520
p232
I00
sV11952893
p233
I00
sV15189570
p234
I00
sV27466371
p235
I00
sV17710100
p236
I00
sV18711341
p237
I00
sV16169729
p238
I00
sV22782856
p239
I00
sV18460187
p240
I00
sV18191255
p241
I00
sV17623104
p242
I00
sV25315994
p243
I00
sV18500999
p244
I00
sV18793442
p245
I00
sV26771930
p246
I00
sV20015972
p247
I00
sV20668676
p248
I00
sV10637320
p249
I00
sV16978855
p250
I00
sV22406173
p251
I00
sV15463727
p252
I00
sV16118665
p253
I00
sV24674620
p254
I00
sV25260700
p255
I00
sV16105899
p256
I00
sV17971784
p257
I00
sV22208880
p258
I00
sV20486930
p259
I00
sV18312613
p260
I00
sV12160095
p261
I00
sV17341818
p262
I00
sV23384594
p263
I00
sV26319892
p264
I00
sV15671116
p265
I00
sV15888675
p266
I00
sV22184215
p267
I00
sV17406635
p268
I00
sV25489020
p269
I00
sV12534466
p270
I00
sV21212881
p271
I00
sV12534463
p272
I00
sV22351176
p273
I00
sV11498005
p274
I00
sS'20126531'
p275
I01
sV17674156
p276
I00
sV12566402
p277
I00
sV16328855
p278
I00
sV10645538
p279
I00
sV15262797
p280
I00
sV21097890
p281
I00
sS'12801875'
p282
I01
sV9746350
p283
I00
sV28333921
p284
I00
sV20655798
p285
I00
sV1897995
p286
I00
sV20731870
p287
I00
sV22749401
p288
I00
sV15557737
p289
I00
sV21515412
p290
I00
sV15701760
p291
I00
sV9852127
p292
I00
sV23373753
p293
I00
sV25636620
p294
I00
sV19871591
p295
I00
sV16311593
p296
I00
sV10516118
p297
I00
sV21629293
p298
I00
sV12967966
p299
I00
sS'24222407'
p300
I01
sV25605792
p301
I00
sV19755544
p302
I00
sV17137317
p303
I00
sV22965049
p304
I00
sV23246232
p305
I00
sV19646286
p306
I00
sV8432721
p307
I00
sV20570001
p308
I00
sV27345215
p309
I00
sV19997069
p310
I00
sV17350212
p311
I00
sV12142430
p312
I00
sV18428092
p313
I00
sV18299247
p314
I00
sV17658702
p315
I00
sV21365259
p316
I00
sV25575307
p317
I00
sV9268315
p318
I00
sV15848284
p319
I00
sS'18468557'
p320
I01
sV11292689
p321
I00
sV17614694
p322
I00
sV12180966
p323
I00
sV5963505
p324
I00
sV10747141
p325
I00
sV25971514
p326
I00
sV23458856
p327
I00
sV16881711
p328
I00
sV12015879
p329
I00
sV17016516
p330
I00
sV19401675
p331
I00
sV20134428
p332
I00
sV15710883
p333
I00
sV18158297
p334
I00
sV22729179
p335
I00
sV22424233
p336
I00
sV16664694
p337
I00
sV16839195
p338
I00
sV15550942
p339
I00
sV20689021
p340
I00
sV24794435
p341
I00
sV20221395
p342
I00
sV15701786
p343
I00
sV22715155
p344
I00
sV20967426
p345
I00
sV27007317
p346
I00
sV2852135
p347
I00
sS'23680586'
p348
I01
sV21051348
p349
I00
sV24454426
p350
I00
sV18059444
p351
I00
sV19498078
p352
I00
sV20823320
p353
I00
sV20823323
p354
I00
sV10477179
p355
I00
sV26491422
p356
I00
sV20665645
p357
I00
sS'26615025'
p358
I01
sV15037506
p359
I00
sV21623372
p360
I00
sV23188456
p361
I00
sV26244934
p362
I00
sV15625321
p363
I00
sV18613555
p364
I00
sV26530861
p365
I00
sV18990185
p366
I00
sV23982459
p367
I00
sS'17132165'
p368
I01
sV17284593
p369
I00
sV23212105
p370
I00
sV12730377
p371
I00
sV11774006
p372
I00
sV10620354
p373
I00
sS'22847261'
p374
I01
sV24812336
p375
I00
sV20070885
p376
I00
sV26858419
p377
I00
sV17463022
p378
I00
sV19784673
p379
I00
sV11983710
p380
I00
sV21164525
p381
I00
sV21164512
p382
I00
sV19040641
p383
I00
sV9159949
p384
I00
sV17274839
p385
I00
sV15459382
p386
I00
sV19619667
p387
I00
sV22970429
p388
I00
sV18184107
p389
I00
sV21178073
p390
I00
sS'27736793'
p391
I01
sV18028870
p392
I00
sV24682869
p393
I00
sV6348537
p394
I00
sV16774588
p395
I00
sV19218833
p396
I00
sV17822389
p397
I00
sV16951216
p398
I00
sV11752250
p399
I00
sV11752253
p400
I00
sV21245845
p401
I00
sV12920404
p402
I00
sV11752254
p403
I00
sV24280389
p404
I00
sV9521918
p405
I00
sV22170421
p406
I00
sV20803507
p407
I00
sV20573956
p408
I00
sV10716907
p409
I00
sV17138585
p410
I00
sV17208985
p411
I00
sV17922843
p412
I00
sV19249205
p413
I00
sV15028684
p414
I00
sV20829833
p415
I00
sV23935056
p416
I00
sV16103133
p417
I00
sV18974882
p418
I00
sV17130147
p419
I00
sV14595777
p420
I00
sV21062828
p421
I00
sV17438293
p422
I00
sV18676416
p423
I00
sV23086844
p424
I00
sV18202690
p425
I00
sV11571135
p426
I00
sV17032683
p427
I00
sV23258413
p428
I00
sV23258412
p429
I00
sV10919763
p430
I00
sV17259313
p431
I00
sV15494745
p432
I00
sV17547772
p433
I00
sV23046263
p434
I00
sV18048412
p435
I00
sV21889585
p436
I00
sV16155945
p437
I00
sV19575563
p438
I00
sV15096640
p439
I00
sV22405899
p440
I00
sV19323472
p441
I00
sV14681451
p442
I00
sV14681450
p443
I00
sV14681452
p444
I00
sV24961398
p445
I00
sV5122805
p446
I00
sV22183149
p447
I00
sV16824019
p448
I00
sV20852019
p449
I00
sV8816738
p450
I00
sV1833630
p451
I00
sV20713038
p452
I00
sV3281659
p453
I00
sV10713430
p454
I00
sV22095399
p455
I00
sV11014182
p456
I00
sV16442279
p457
I00
sV21663798
p458
I00
sV21097882
p459
I00
sV11544225
p460
I00
sV19100863
p461
I00
sV17065202
p462
I00
sV16731623
p463
I00
sV17429571
p464
I00
sV26336640
p465
I00
sV19888215
p466
I00
sV16214803
p467
I00
sV10436161
p468
I00
sV8241405
p469
I00
sV11222605
p470
I00
sV21709259
p471
I00
sV4199659
p472
I00
sV11418146
p473
I00
sV10514248
p474
I00
sV11262934
p475
I00
sV1548233
p476
I00
sV2128337
p477
I00
sV19458158
p478
I00
sV19754970
p479
I00
sV20158237
p480
I00
sV26620784
p481
I00
sV20823844
p482
I00
sV16997589
p483
I00
sV20823846
p484
I01
sV20823849
p485
I00
sV15911379
p486
I00
sV17237039
p487
I00
sV20393581
p488
I00
sV22179068
p489
I00
sV25775563
p490
I00
sV11006474
p491
I00
sV12004069
p492
I00
sV16556315
p493
I00
sV18842600
p494
I00
sV15527509
p495
I00
sV22020553
p496
I00
sV21368905
p497
I00
sV22436749
p498
I00
sV9395539
p499
I00
sV10483106
p500
I00
sV22789478
p501
I00
sV11481338
p502
I00
sV13398409
p503
I00
sV16632598
p504
I00
sV24965873
p505
I00
sV25447643
p506
I00
sV21142260
p507
I00
sV14672977
p508
I00
sV18508962
p509
I00
sV20136149
p510
I00
sV20109253
p511
I00
sV7584402
p512
I00
sV24632194
p513
I00
sV20419153
p514
I00
sV20935044
p515
I00
sV10820012
p516
I00
sV26355219
p517
I00
sV24453953
p518
I01
sV22937810
p519
I00
sV22612383
p520
I00
sV21141668
p521
I00
sV27029554
p522
I00
sV18553808
p523
I00
sV9244562
p524
I00
sV15064768
p525
I00
sV14595782
p526
I00
sV16946257
p527
I00
sV22447740
p528
I00
sV20981092
p529
I00
sV20080587
p530
I00
sV19756045
p531
I00
sV15075390
p532
I00
sV25156090
p533
I00
sV18629186
p534
I00
sV23555215
p535
I00
sV23431559
p536
I00
sV24553424
p537
I00
sV14871882
p538
I00
sV11752314
p539
I00
sV25712422
p540
I00
sV11246024
p541
I00
sV14695922
p542
I00
sV19830716
p543
I00
sV20420838
p544
I00
sV16299083
p545
I00
sV18668434
p546
I00
sV19415112
p547
I00
sV22589385
p548
I00
sV23085877
p549
I00
sV21992107
p550
I00
sV16944282
p551
I00
sV19456868
p552
I00
sV17932057
p553
I00
sV16042606
p554
I00
sV15028679
p555
I00
sV12826406
p556
I00
sV21283140
p557
I00
sV15608167
p558
I00
sV16397293
p559
I00
sV25897682
p560
I00
sV25331708
p561
I00
sV22976213
p562
I00
sV17822535
p563
I00
sV25057820
p564
I00
sV20712863
p565
I01
sV21244678
p566
I00
sV19067749
p567
I00
sV22903296
p568
I00
sV21391558
p569
I00
sV6375681
p570
I00
sV17625511
p571
I00
sV18054049
p572
I00
sV12765837
p573
I00
sV11807560
p574
I00
sV8594595
p575
I00
sV17609945
p576
I00
sV21067998
p577
I00
sV22978366
p578
I00
sV15913804
p579
I00
sV18455248
p580
I00
sV18239081
p581
I00
sV15071553
p582
I00
sV16317075
p583
I00
sV1453698
p584
I00
sV20031969
p585
I00
sV21414417
p586
I00
sV1453697
p587
I00
sV22233419
p588
I00
sV19064257
p589
I00
sV20371929
p590
I00
sV22971357
p591
I00
sV9278503
p592
I00
sV9351205
p593
I00
sV15262934
p594
I00
sV17579770
p595
I00
sV20955552
p596
I00
sV24419221
p597
I00
sV2680602
p598
I00
sV10944149
p599
I00
sV12360191
p600
I00
sV9384377
p601
I00
sV15743968
p602
I00
sV20443163
p603
I00
sV20921221
p604
I00
sV18215292
p605
I00
sV12432395
p606
I00
sV19881490
p607
I00
sV18223075
p608
I00
sV12415116
p609
I00
sV24333786
p610
I00
sV20203603
p611
I00
sV19690565
p612
I00
sV17546966
p613
I00
sV22110018
p614
I00
sV23271832
p615
I00
sV12472777
p616
I00
sV23763941
p617
I00
sV11522199
p618
I00
sV22332784
p619
I00
sV8816746
p620
I00
sV22915023
p621
I00
sV22920415
p622
I00
sV15059661
p623
I00
sV15543610
p624
I00
sV14696046
p625
I00
sV24132122
p626
I00
sV17510664
p627
I00
sV18050944
p628
I00
sS'22207618'
p629
I01
sV18553576
p630
I00
sV16306980
p631
I00
sV17142221
p632
I00
sV11082198
p633
I00
sV15659246
p634
I00
sV16362071
p635
I00
sV18958862
p636
I00
sV18061440
p637
I00
sV20118361
p638
I00
sV19355893
p639
I00
sV17553798
p640
I00
sV21988831
p641
I00
sV5642081
p642
I00
sV15590779
p643
I00
sV15821729
p644
I00
sV25141288
p645
I00
sV20087340
p646
I00
sV18843342
p647
I00
sS'24222422'
p648
I01
sV21102456
p649
I00
sV17442674
p650
I00
sV21963522
p651
I00
sV25845595
p652
I00
sV10862876
p653
I00
sV18594774
p654
I00
sS'21501263'
p655
I01
sV12682299
p656
I00
sV21592777
p657
I00
sV20466925
p658
I00
sV8508809
p659
I00
sV2010546
p660
I00
sV23301019
p661
I00
sV17462086
p662
I00
sV16608839
p663
I00
sS'25343869'
p664
I01
sV22369203
p665
I00
sV23109553
p666
I00
sV23109552
p667
I00
sV20221863
p668
I00
sV20236959
p669
I00
sV4933108
p670
I00
sV10805808
p671
I00
sV20529914
p672
I00
sV12706503
p673
I00
sV24225321
p674
I00
sV18486941
p675
I00
sV20959003
p676
I00
sV25352601
p677
I00
sV22402228
p678
I00
sV21149340
p679
I00
sV16267098
p680
I00
sV22424434
p681
I00
sV16893953
p682
I00
sV14996223
p683
I00
sV16519800
p684
I00
sV26109480
p685
I00
sV23431146
p686
I00
sV22570597
p687
I00
sV26040289
p688
I00
sV25001103
p689
I00
sV22503618
p690
I00
sV11928487
p691
I00
sV16381888
p692
I00
sV19028900
p693
I00
sV16381885
p694
I00
sV16381883
p695
I00
sV19200003
p696
I00
sV15980585
p697
I00
sV19554356
p698
I00
sV19920124
p699
I00
sV8645235
p700
I00
sV24325901
p701
I00
sV26168400
p702
I00
sV11551473
p703
I00
sV11537060
p704
I00
sV23172809
p705
I00
sV21029416
p706
I00
sV23463245
p707
I00
sV20334617
p708
I00
sV17267599
p709
I00
sV24253303
p710
I00
sV14506848
p711
I00
sV16606697
p712
I00
sV12929205
p713
I00
sV24170397
p714
I00
sV15197165
p715
I00
sV19793600
p716
I00
sV21224223
p717
I00
sV15897462
p718
I00
sV7986045
p719
I00
sV11466286
p720
I00
sV22450380
p721
I00
sV10099012
p722
I00
sV20589842
p723
I00
sV16986257
p724
I00
sV12062419
p725
I00
sV15998455
p726
I00
sV17646310
p727
I00
sV23395674
p728
I00
sV17646315
p729
I00
sV14572541
p730
I00
sV23071270
p731
I00
sV12136097
p732
I00
sV14708125
p733
I00
sV25302562
p734
I00
sV20558668
p735
I00
sV23390245
p736
I00
sV22768229
p737
I00
sV24958259
p738
I00
sV25329157
p739
I01
sV14708128
p740
I00
sV23207804
p741
I00
sV15608238
p742
I00
sV17129827
p743
I00
sV17129822
p744
I00
sV3157797
p745
I00
sV22138629
p746
I00
sV19291418
p747
I00
sV24039572
p748
I00
sV11679321
p749
I00
sV12761066
p750
I00
sV16796559
p751
I00
sV15752426
p752
I00
sV22080096
p753
I00
sV18356193
p754
I00
sV22146999
p755
I00
sV10910359
p756
I00
sV21115436
p757
I00
sV21081972
p758
I00
sV12169656
p759
I00
sV17215359
p760
I00
sV22206037
p761
I00
sV9818143
p762
I00
sV1523884
p763
I00
sV14622413
p764
I00
sV21241816
p765
I00
sV16986321
p766
I00
sV16986322
p767
I00
sV15885614
p768
I00
sV22686345
p769
I00
sV19489016
p770
I00
sV19049901
p771
I00
sV25514047
p772
I00
sV17410176
p773
I00
sV14642354
p774
I00
sV12885266
p775
I00
sV26508635
p776
I00
sV21402209
p777
I00
sV20134070
p778
I00
sV15173116
p779
I00
sV23393554
p780
I00
sV18488445
p781
I00
sV15608227
p782
I00
sV22509034
p783
I00
sV18452587
p784
I00
sV23836869
p785
I00
sV15368893
p786
I00
sV17768254
p787
I00
sV20537123
p788
I00
sV23843751
p789
I00
sV21262829
p790
I00
sV19820115
p791
I00
sV26102287
p792
I00
sV15722563
p793
I00
sV15860374
p794
I00
sS'21082444'
p795
I01
sV2847554
p796
I00
sS'21433289'
p797
I01
sV19833224
p798
I00
sV15718163
p799
I00
sV21476605
p800
I00
sV18680669
p801
I00
sV12215812
p802
I00
sV14708879
p803
I00
sV7961496
p804
I00
sV23297175
p805
I00
sV26967105
p806
I00
sV22546835
p807
I00
sV16052034
p808
I00
sV21903629
p809
I00
sV24214961
p810
I00
sV12473363
p811
I00
sV25869135
p812
I00
sV19575586
p813
I00
sV19575587
p814
I00
sV15572364
p815
I00
sV11378031
p816
I00
sV17456186
p817
I00
sV20594333
p818
I00
sV27060776
p819
I00
sV16772264
p820
I00
sV15331224
p821
I00
sV22446067
p822
I00
sV21083105
p823
I00
sV17932292
p824
I00
sV24211263
p825
I00
sV19762644
p826
I00
sV18057018
p827
I00
sV12069492
p828
I00
sV9927716
p829
I00
sV23455439
p830
I00
sV9202005
p831
I00
sV4997718
p832
I00
sV26215764
p833
I00
sV25132534
p834
I00
sV19119993
p835
I00
sV24691166
p836
I00
sV23234303
p837
I00
sV16553966
p838
I00
sV23231771
p839
I00
sV16204108
p840
I00
sV25566296
p841
I00
sV21959288
p842
I00
sV22832350
p843
I00
sV15389842
p844
I00
sV15882622
p845
I00
sV27502771
p846
I00
sV7770070
p847
I00
sV12202761
p848
I00
sV20361498
p849
I00
sV22834945
p850
I00
sV24413519
p851
I00
sV15083156
p852
I00
sV16780611
p853
I00
sV17593909
p854
I01
sV21281568
p855
I00
sV22872868
p856
I00
sV21351878
p857
I00
sV22417173
p858
I00
sV17526785
p859
I00
sV20383131
p860
I00
sV10805817
p861
I00
sV17094945
p862
I00
sV19515966
p863
I00
sV17930409
p864
I00
sV17353934
p865
I00
sV12679064
p866
I00
sV19111634
p867
I00
sV18359752
p868
I00
sV25210595
p869
I00
sV19840866
p870
I00
sV15078855
p871
I00
sV20664636
p872
I00
sV24369854
p873
I00
sV18791018
p874
I00
sV12013276
p875
I00
sV15642094
p876
I00
sV12013278
p877
I00
sV21632543
p878
I00
sV18295713
p879
I00
sV14508477
p880
I00
sV22262476
p881
I00
sV20233082
p882
I00
sV20677029
p883
I00
sV18840283
p884
I00
sS'17243146'
p885
I01
sV15953932
p886
I00
sV19082769
p887
I00
sV22269136
p888
I00
sV23060735
p889
I00
sV18582974
p890
I00
sV2024960
p891
I00
sV21671558
p892
I00
sV21804546
p893
I00
sV19562197
p894
I00
sV25155278
p895
I00
sV23520143
p896
I00
sV20086087
p897
I00
sV20177951
p898
I00
sV18803844
p899
I00
sV27009723
p900
I00
sV15448692
p901
I00
sV21266494
p902
I00
sV22325862
p903
I00
sV25977477
p904
I00
sV16839657
p905
I00
sV18083776
p906
I00
sV11435407
p907
I00
sV20404489
p908
I00
sV22661132
p909
I00
sV11408557
p910
I00
sV23280012
p911
I00
sV24441040
p912
I00
sV22833710
p913
I00
sV24482762
p914
I00
sV24275496
p915
I00
sV18225949
p916
I00
sV23064226
p917
I00
sV18050939
p918
I00
sV25297499
p919
I00
sV26240352
p920
I00
sV11904428
p921
I00
sV4373439
p922
I00
sV12671093
p923
I00
sV22770225
p924
I00
sV22222943
p925
I00
sV21909251
p926
I00
sV17031956
p927
I00
sV17012394
p928
I00
sV8808741
p929
I00
sV20421458
p930
I00
sV17188763
p931
I00
sV21036868
p932
I00
sV18270321
p933
I00
sV2717219
p934
I00
sV20492649
p935
I00
sV18645197
p936
I00
sV22607863
p937
I00
sV11814576
p938
I00
sV11814579
p939
I00
sS'24712528'
p940
I01
sV17216441
p941
I00
sV15608200
p942
I00
sV18077471
p943
I00
sV19906986
p944
I00
sV21915640
p945
I00
sV8043597
p946
I00
sV16381856
p947
I00
sV17172310
p948
I00
sV18940858
p949
I00
sV23180789
p950
I00
sV1785927
p951
I00
sS'21943909'
p952
I01
sV12704152
p953
I00
sV15640230
p954
I00
sV16113218
p955
I00
sV23220386
p956
I00
sV9287494
p957
I00
sV16841068
p958
I00
sV18389080
p959
I00
sV24553913
p960
I00
sV18769432
p961
I00
sV15255887
p962
I00
sV2866244
p963
I00
sV8761851
p964
I00
sV22076706
p965
I00
sV15903248
p966
I00
sV17148474
p967
I00
sV17148475
p968
I00
sV17652176
p969
I00
sV23552054
p970
I00
sS'28479069'
p971
I01
sV15372033
p972
I00
sV4364328
p973
I00
sV22037181
p974
I00
sV10929718
p975
I00
sV17658902
p976
I00
sV18541913
p977
I00
sV25108687
p978
I00
sS'27014700'
p979
I01
sV23175637
p980
I00
sV8550525
p981
I00
sV18364711
p982
I00
sV18364712
p983
I00
sV20180275
p984
I00
sV20615690
p985
I00
sV23927696
p986
I00
sV21560018
p987
I00
sV23118012
p988
I00
sV19712041
p989
I00
sV21311067
p990
I00
sV15105138
p991
I00
sV16506545
p992
I00
sV18587795
p993
I00
sS'26421278'
p994
I01
sV11175846
p995
I00
sV9852098
p996
I00
sV15637255
p997
I00
sV11701654
p998
I00
sV6124533
p999
I00
sV18041668
p1000
I00
sV17062565
p1001
I00
sV22909788
p1002
I00
sV21846360
p1003
I01
sV21478350
p1004
I00
sV19425150
p1005
I00
sS'21757732'
p1006
I01
sV17115182
p1007
I00
sV12405558
p1008
I00
sV23298813
p1009
I00
sV12049412
p1010
I00
sV10592173
p1011
I00
sV21720319
p1012
I00
sV23314297
p1013
I00
sV20369014
p1014
I00
sV21406205
p1015
I00
sV10954735
p1016
I00
sV17150997
p1017
I00
sV17284612
p1018
I00
sV23800136
p1019
I00
sV15451507
p1020
I00
sV17105650
p1021
I00
sV25540838
p1022
I00
sV22144361
p1023
I00
sV16170412
p1024
I00
sV15193309
p1025
I00
sV22308420
p1026
I00
sV11752349
p1027
I00
sV24678285
p1028
I00
sV22890819
p1029
I00
sV1679347
p1030
I00
sV21415141
p1031
I00
sV15215578
p1032
I00
sV23593322
p1033
I00
sV12721848
p1034
I00
sV18805693
p1035
I00
sV24913167
p1036
I00
sV22709677
p1037
I00
sV22257857
p1038
I00
sV22041788
p1039
I00
sV23712350
p1040
I00
sV24695071
p1041
I00
sV17115212
p1042
I00
sV12466293
p1043
I00
sV20511510
p1044
I00
sV18062772
p1045
I00
sV15612915
p1046
I00
sV20550936
p1047
I00
sV19396373
p1048
I00
sV15701695
p1049
I00
sV7836281
p1050
I00
sV15908506
p1051
I00
sV20681642
p1052
I00
sV21815690
p1053
I00
sV22355343
p1054
I00
sV21749710
p1055
I00
sV2821345
p1056
I00
sV17034125
p1057
I00
sV16380079
p1058
I00
sV15287973
p1059
I00
sV24039
p1060
I00
sV18045787
p1061
I00
sV17684710
p1062
I00
sV17981891
p1063
I00
sV7437420
p1064
I00
sV19889094
p1065
I00
sV20426874
p1066
I00
sV19737926
p1067
I00
sV24880488
p1068
I00
sV3098730
p1069
I00
sV23039714
p1070
I00
sV24513656
p1071
I00
sV15864286
p1072
I00
sV2193692
p1073
I00
sV22661919
p1074
I00
sV20003240
p1075
I00
sV22815171
p1076
I00
sV23325797
p1077
I00
sV17199125
p1078
I00
sV23910799
p1079
I00
sV24966243
p1080
I00
sV16346149
p1081
I00
sS'28217746'
p1082
I01
sV8067379
p1083
I00
sV20064214
p1084
I00
sV19729372
p1085
I00
sV23925533
p1086
I00
sV25857222
p1087
I00
sV24293654
p1088
I00
sV23678342
p1089
I00
sV7535888
p1090
I00
sV18309312
p1091
I00
sV4902792
p1092
I00
sS'27186840'
p1093
I01
sV18026122
p1094
I00
sV20339444
p1095
I00
sV18536691
p1096
I01
sV11601609
p1097
I00
sV21079673
p1098
I00
sV23489027
p1099
I00
sV23690396
p1100
I00
sV24068739
p1101
I00
sV25763104
p1102
I00
sV21337642
p1103
I00
sV21172910
p1104
I00
sV19907483
p1105
I00
sV15608210
p1106
I00
sV24723921
p1107
I00
sV19445715
p1108
I00
sV17252281
p1109
I00
sV15109811
p1110
I00
sV11831469
p1111
I00
sV22426639
p1112
I00
sV26518910
p1113
I00
sV22615553
p1114
I00
sV18625337
p1115
I00
sV9425822
p1116
I00
sV22923347
p1117
I00
sV22540944
p1118
I00
sV23396507
p1119
I00
sV16381841
p1120
I00
sV16381840
p1121
I00
sV10601204
p1122
I00
sV25386654
p1123
I00
sV19584015
p1124
I00
sV18588708
p1125
I00
sV17123434
p1126
I00
sV20935180
p1127
I00
sV20949072
p1128
I00
sV18555717
p1129
I00
sV15038961
p1130
I00
sV20693992
p1131
I00
sV20630880
p1132
I00
sV26150544
p1133
I00
sV19528212
p1134
I00
sV21124952
p1135
I00
sV22448154
p1136
I00
sV18689621
p1137
I00
sV23116403
p1138
I00
sV5337756
p1139
I00
sV18332432
p1140
I00
sV23647970
p1141
I00
sV18985611
p1142
I00
sV23142545
p1143
I00
sV26117687
p1144
I00
sV11101318
p1145
I00
sV21620688
p1146
I00
sS'22008641'
p1147
I01
sV25941371
p1148
I00
sV21401935
p1149
I00
sV22610447
p1150
I00
sV21136082
p1151
I00
sV11125051
p1152
I00
sV23762452
p1153
I00
sV12700248
p1154
I00
sV20150127
p1155
I00
sV15231752
p1156
I00
sV23235874
p1157
I00
sV22253257
p1158
I00
sV21154879
p1159
I00
sV17546021
p1160
I00
sV23071359
p1161
I00
sV22018234
p1162
I00
sV16461711
p1163
I00
sV781840
p1164
I00
sV11781809
p1165
I00
sV22588484
p1166
I00
sV19668871
p1167
I00
sV15760844
p1168
I00
sV16199194
p1169
I00
sV17873044
p1170
I00
sV17005799
p1171
I00
sV21329461
p1172
I00
sV20482636
p1173
I00
sV23131418
p1174
I00
sV26136848
p1175
I00
sV24694716
p1176
I00
sV22064852
p1177
I00
sV18207462
p1178
I00
sV24551039
p1179
I00
sV20403172
p1180
I00
sV8113186
p1181
I00
sV19636438
p1182
I00
sV22429650
p1183
I00
sV11685177
p1184
I00
sV22184244
p1185
I00
sV17526522
p1186
I00
sV22392983
p1187
I00
sV22388689
p1188
I00
sV16772023
p1189
I00
sV10807389
p1190
I00
sV20661448
p1191
I00
sV15286737
p1192
I00
sV20176062
p1193
I00
sV22701716
p1194
I00
sV17846036
p1195
I00
sV15027865
p1196
I00
sV17320480
p1197
I00
sV26079294
p1198
I00
sV19747879
p1199
I00
sV22596205
p1200
I00
sV14630934
p1201
I00
sV20113715
p1202
I00
sV5401460
p1203
I00
sV25893156
p1204
I00
sV13459440
p1205
I00
sV17183312
p1206
I00
sV2719476
p1207
I00
sV15342562
p1208
I00
sV7265238
p1209
I00
sV18992329
p1210
I00
sV17555602
p1211
I00
sV16880395
p1212
I00
sV22151036
p1213
I00
sV11433356
p1214
I00
sV7576768
p1215
I00
sS'28732479'
p1216
I01
sV21811229
p1217
I01
sV9655396
p1218
I00
sV20483918
p1219
I00
sV15755952
p1220
I00
sV21203490
p1221
I00
sV23312283
p1222
I00
sS'27783135'
p1223
I01
sV24497502
p1224
I00
sV12449427
p1225
I00
sV16751554
p1226
I00
sV15849303
p1227
I00
sV17653123
p1228
I00
sV2001227
p1229
I00
sV11175725
p1230
I00
sV18473803
p1231
I00
sV25848053
p1232
I00
sV24225315
p1233
I00
sV24225317
p1234
I00
sV25841013
p1235
I00
sV16574696
p1236
I00
sV19714220
p1237
I00
sV24733415
p1238
I00
sV16663206
p1239
I00
sV17395091
p1240
I00
sV18469830
p1241
I00
sV20037583
p1242
I00
sV15231801
p1243
I00
sV20037589
p1244
I00
sV10958638
p1245
I00
sV19200357
p1246
I00
sV19057639
p1247
I00
sV21691792
p1248
I00
sV17632026
p1249
I00
sV12153013
p1250
I00
sV19133145
p1251
I00
sV19001074
p1252
I00
sV22955987
p1253
I00
sV18381565
p1254
I00
sV16507154
p1255
I00
sV20003500
p1256
I00
sV20469857
p1257
I00
sV25130883
p1258
I00
sV17408485
p1259
I00
sV22325894
p1260
I00
sV27832198
p1261
I00
sV22824957
p1262
I00
sV23109570
p1263
I00
sV17616587
p1264
I00
sV23142828
p1265
I00
sV11329290
p1266
I00
sV16291690
p1267
I00
sV15886388
p1268
I00
sV22997515
p1269
I00
sV1944532
p1270
I00
sV1537278
p1271
I00
sV22640696
p1272
I00
sV21356961
p1273
I00
sV23300405
p1274
I00
sV25733616
p1275
I00
sV21059682
p1276
I00
sV15831718
p1277
I00
sV26578582
p1278
I00
sV10529352
p1279
I00
sV22614707
p1280
I00
sV19770075
p1281
I00
sV15534700
p1282
I00
sV16188921
p1283
I00
sV20520604
p1284
I00
sV23026121
p1285
I00
sV15572476
p1286
I00
sV22962330
p1287
I00
sV15639138
p1288
I00
sV22142312
p1289
I00
sV12776215
p1290
I00
sV20727158
p1291
I00
sV23892182
p1292
I01
sV23858463
p1293
I00
sV22313799
p1294
I00
sV22763288
p1295
I00
sV19731374
p1296
I00
sV14665680
p1297
I00
sV23613453
p1298
I00
sV22911607
p1299
I00
sV16683036
p1300
I00
sV16381876
p1301
I00
sV20436464
p1302
I00
sV25943547
p1303
I00
sV22305969
p1304
I00
sV24413918
p1305
I00
sV21059217
p1306
I00
sV21190580
p1307
I00
sV20581821
p1308
I00
sV17045684
p1309
I00
sV2200929
p1310
I00
sV19958496
p1311
I00
sV23102864
p1312
I00
sV12475972
p1313
I00
sV19239278
p1314
I00
sV20855724
p1315
I00
sV8302217
p1316
I00
sV18853410
p1317
I00
sV22166170
p1318
I00
sV16598256
p1319
I00
sV22573601
p1320
I00
sV10547837
p1321
I00
sV26511562
p1322
I00
sV16572170
p1323
I00
sV20929806
p1324
I00
sV17827348
p1325
I00
sV22892193
p1326
I00
sV16738554
p1327
I00
sV16738551
p1328
I00
sV21948594
p1329
I00
sV11473011
p1330
I00
sV20150928
p1331
I00
sV21999653
p1332
I00
sV19666133
p1333
I00
sV27572396
p1334
I00
sV16573679
p1335
I00
sV11125061
p1336
I00
sV21320580
p1337
I00
sV19068099
p1338
I00
sV18215139
p1339
I00
sV16375763
p1340
I00
sV27903906
p1341
I00
sV18492807
p1342
I00
sV16354673
p1343
I00
sV22161355
p1344
I00
sV22411464
p1345
I00
sV22383176
p1346
I00
sV20837882
p1347
I00
sV19850718
p1348
I00
sV17337545
p1349
I00
sV11781362
p1350
I00
sV17967552
p1351
I00
sV18252821
p1352
I00
sV12000313
p1353
I00
sV15178193
p1354
I00
sV16469879
p1355
I00
sV22558288
p1356
I00
sV10493868
p1357
I00
sV19329703
p1358
I00
sV270744
p1359
I00
sV15889163
p1360
I00
sV23147702
p1361
I00
sV17573341
p1362
I00
sV18846089
p1363
I01
sV16457616
p1364
I00
sS'26576489'
p1365
I01
sV19507285
p1366
I00
sV21637328
p1367
I00
sV21461040
p1368
I00
sV19555510
p1369
I00
sV17182837
p1370
I00
sV2231712
p1371
I00
sV16496022
p1372
I00
sV19095900
p1373
I00
sV26775926
p1374
I00
sV27284850
p1375
I00
sV18758767
p1376
I00
sV24438235
p1377
I00
sV15626710
p1378
I00
sV19376871
p1379
I00
sV12070452
p1380
I00
sV19669466
p1381
I00
sV22999913
p1382
I00
sV17373823
p1383
I00
sV19666057
p1384
I00
sV23793264
p1385
I00
sV17082206
p1386
I00
sV2768261
p1387
I00
sV15329721
p1388
I00
sV12051985
p1389
I00
sV12698275
p1390
I00
sV21498682
p1391
I00
sV17098933
p1392
I00
sV25264100
p1393
I00
sV11158573
p1394
I00
sV5420325
p1395
I00
sV15568024
p1396
I00
sV16372010
p1397
I00
sV15047998
p1398
I00
sV19577473
p1399
I00
sV11030563
p1400
I00
sV21819238
p1401
I00
sV18776214
p1402
I00
sV10751092
p1403
I00
sV12824370
p1404
I00
sV24972068
p1405
I00
sV10480925
p1406
I00
sV18600222
p1407
I00
sV16704343
p1408
I00
sV22735334
p1409
I00
sV15183112
p1410
I00
sV17001629
p1411
I00
sV16553314
p1412
I00
sV23041138
p1413
I00
sV15980437
p1414
I00
sV10570195
p1415
I00
sV17088549
p1416
I00
sV20031983
p1417
I00
sV16477005
p1418
I00
sV22465599
p1419
I00
sV19281817
p1420
I00
sV19854951
p1421
I00
sV12202358
p1422
I00
sV21912516
p1423
I00
sV23417801
p1424
I00
sV16040987
p1425
I00
sV19054115
p1426
I00
sV23092136
p1427
I00
sV24625893
p1428
I00
sV16126452
p1429
I00
sV8305875
p1430
I00
sV18158299
p1431
I00
sV19920128
p1432
I00
sV18262675
p1433
I00
sV25873626
p1434
I00
sV22369158
p1435
I00
sV21886157
p1436
I00
sV4986297
p1437
I00
sV19627604
p1438
I00
sV11479309
p1439
I00
sV22956899
p1440
I00
sV26590126
p1441
I00
sV10191392
p1442
I00
sV22529767
p1443
I00
sV14990451
p1444
I00
sV15908230
p1445
I00
sV21139605
p1446
I00
sV22672124
p1447
I00
sV24721214
p1448
I00
sV24721211
p1449
I00
sV23417797
p1450
I00
sV9693963
p1451
I00
sV14595858
p1452
I00
sV25831533
p1453
I00
sV26759150
p1454
I00
sV9265774
p1455
I00
sV23417799
p1456
I00
sV25831536
p1457
I00
sV23420506
p1458
I00
sV23144661
p1459
I00
sV16571130
p1460
I00
sV12353619
p1461
I00
sV23103988
p1462
I00
sV21572414
p1463
I00
sV26854499
p1464
I00
sV25662277
p1465
I00
sV25502316
p1466
I00
sV25502314
p1467
I00
sV15919996
p1468
I00
sV15654321
p1469
I00
sV16492482
p1470
I00
sV17170002
p1471
I00
sV10567213
p1472
I00
sV20543878
p1473
I00
sV20168317
p1474
I00
sV9045672
p1475
I00
sV21544146
p1476
I00
sV20600382
p1477
I00
sV16333295
p1478
I00
sV18340442
p1479
I00
sV21755001
p1480
I00
sV23314354
p1481
I00
sV1889045
p1482
I00
sV19955237
p1483
I00
sV22306209
p1484
I00
sV18974178
p1485
I00
sV8265664
p1486
I00
sV17181854
p1487
I00
sV17463081
p1488
I00
sV22823888
p1489
I00
sV23624469
p1490
I00
sV22163331
p1491
I00
sV21559344
p1492
I00
sV16381842
p1493
I00
sV10901708
p1494
I00
sV21164573
p1495
I00
sV18269749
p1496
I00
sV16082367
p1497
I00
sV20836035
p1498
I00
sV20717559
p1499
I00
sV12169551
p1500
I00
sV16348821
p1501
I00
sV21902829
p1502
I00
sS'26495291'
p1503
I01
sV20534544
p1504
I00
sV25806041
p1505
I00
sV21059201
p1506
I00
sV16569602
p1507
I00
sV22284781
p1508
I00
sV10775659
p1509
I00
sV20863228
p1510
I00
sV23142542
p1511
I00
sV21123256
p1512
I00
sV20029369
p1513
I00
sV22406961
p1514
I00
sV12080101
p1515
I00
sV5541006
p1516
I00
sV1722664
p1517
I00
sV22972297
p1518
I00
sV23224572
p1519
I00
sV9723817
p1520
I00
sV16950653
p1521
I00
sV7576769
p1522
I00
sV10995773
p1523
I00
sV19170513
p1524
I00
sV22865623
p1525
I00
sV24267221
p1526
I00
sV17022660
p1527
I00
sV15328044
p1528
I00
sV18722501
p1529
I00
sV12952533
p1530
I00
sV11135551
p1531
I00
sV21221096
p1532
I00
sV11752249
p1533
I00
sV22780918
p1534
I00
sV18374559
p1535
I00
sV18638364
p1536
I00
sV14907713
p1537
I00
sV18843360
p1538
I00
sS'27274991'
p1539
I01
sV24516375
p1540
I00
sV23147668
p1541
I00
sV22719234
p1542
I00
sV19701461
p1543
I00
sV16680201
p1544
I00
sV17222009
p1545
I00
sV22116062
p1546
I00
sV18378657
p1547
I00
sV11937421
p1548
I00
sV8590661
p1549
I00
sV23667601
p1550
I00
sV970945
p1551
I00
sV22971835
p1552
I00
sV19737799
p1553
I00
sV11001586
p1554
I00
sV23442083
p1555
I00
sV14594721
p1556
I00
sV8977114
p1557
I00
sV22675592
p1558
I00
sV10440372
p1559
I00
sV22203775
p1560
I00
sV25440056
p1561
I00
sV25599401
p1562
I00
sV14530136
p1563
I00
sV10356246
p1564
I00
sV17822305
p1565
I00
sV21959131
p1566
I00
sV14623019
p1567
I00
sV22102985
p1568
I00
sV2904149
p1569
I00
sV27768886
p1570
I00
sV21556754
p1571
I00
sV22586093
p1572
I00
sV17700859
p1573
I00
sV23050773
p1574
I00
sV16341061
p1575
I00
sV16337962
p1576
I00
sS'28242343'
p1577
I01
sV16207904
p1578
I00
sV23541504
p1579
I00
sV19284618
p1580
I00
sV22137751
p1581
I00
sV18249414
p1582
I00
sV19398450
p1583
I00
sV24492599
p1584
I00
sV25427790
p1585
I00
sV15519045
p1586
I00
sV2674131
p1587
I00
sV20159614
p1588
I00
sV17330071
p1589
I00
sV18379780
p1590
I00
sV25139902
p1591
I00
sV14571390
p1592
I00
sV21701501
p1593
I00
sV20225336
p1594
I00
sV21382593
p1595
I00
sV23079505
p1596
I00
sV9022698
p1597
I00
sV27188163
p1598
I00
sV3886898
p1599
I00
sV15102470
p1600
I00
sV12930833
p1601
I00
sV18221809
p1602
I00
sV25395010
p1603
I00
sV4351505
p1604
I00
sV12543140
p1605
I00
sV11858835
p1606
I00
sV22468890
p1607
I00
sV9254694
p1608
I00
sV15723693
p1609
I00
sV21886097
p1610
I00
sV24653705
p1611
I00
sV11842435
p1612
I00
sV17484021
p1613
I00
sV21199890
p1614
I00
sV2332165
p1615
I00
sV24413396
p1616
I00
sV25980407
p1617
I00
sV18681788
p1618
I00
sV12581712
p1619
I00
sV2454592
p1620
I00
sV9473028
p1621
I00
sV24762745
p1622
I00
sV9847135
p1623
I00
sV26322631
p1624
I00
sV3666964
p1625
I00
sV22174252
p1626
I00
sV18483615
p1627
I00
sV21172059
p1628
I00
sV11706018
p1629
I00
sV16893960
p1630
I00
sV21827869
p1631
I00
sV19874610
p1632
I00
sV19874611
p1633
I00
sV12824418
p1634
I00
sV20124342
p1635
I00
sV16381880
p1636
I00
sV14563875
p1637
I00
sV15829537
p1638
I00
sV22989154
p1639
I00
sV10420081
p1640
I00
sV16941010
p1641
I00
sV1731067
p1642
I00
sV23357920
p1643
I00
sV25043335
p1644
I00
sV18805734
p1645
I00
sV23218566
p1646
I00
sV14505407
p1647
I00
sV12692324
p1648
I00
sV25352553
p1649
I00
sV18695391
p1650
I00
sV20190088
p1651
I00
sV12633501
p1652
I00
sV16597467
p1653
I00
sV15547264
p1654
I00
sV17135193
p1655
I00
sV21963247
p1656
I00
sV23975157
p1657
I00
sV20802497
p1658
I00
sV14325885
p1659
I00
sS'22185482'
p1660
I01
sV21566122
p1661
I00
sV23393265
p1662
I00
sV25548193
p1663
I00
sV10931172
p1664
I00
sV17301733
p1665
I00
sV23203987
p1666
I00
sV26528567
p1667
I00
sV23209127
p1668
I00
sV25505460
p1669
I00
sV15653810
p1670
I00
sV3119567
p1671
I00
sV18585360
p1672
I00
sV14985762
p1673
I00
sV19588116
p1674
I00
sV22123257
p1675
I00
sV24480613
p1676
I00
sV16820779
p1677
I00
sV19116616
p1678
I00
sV18192387
p1679
I00
sV8431
p1680
I00
sV27340816
p1681
I00
sV3356710
p1682
I00
sS'27590448'
p1683
I01
sV19467724
p1684
I00
sV19660986
p1685
I00
sV20448175
p1686
I00
sV10952267
p1687
I00
sV18698648
p1688
I00
sV22351177
p1689
I00
sV15520298
p1690
I00
sV14559781
p1691
I00
sV14559783
p1692
I00
sV16246909
p1693
I00
sV21998306
p1694
I00
sV21810278
p1695
I00
sV12960058
p1696
I00
sV860983
p1697
I00
sV17142235
p1698
I00
sV8230210
p1699
I00
sV16632515
p1700
I00
sV23028286
p1701
I00
sV19082585
p1702
I00
sV16199500
p1703
I00
sV15531608
p1704
I00
sV24999350
p1705
I00
sV16349432
p1706
I00
sV20622067
p1707
I00
sV16535628
p1708
I00
sV28093455
p1709
I00
sV8774709
p1710
I00
sV18004212
p1711
I00
sV1610179
p1712
I00
sV11578926
p1713
I00
sV18480101
p1714
I00
sV20486139
p1715
I00
sV8763491
p1716
I00
sV12356911
p1717
I00
sV18952873
p1718
I00
sV8804822
p1719
I00
sV3353225
p1720
I00
sV22699609
p1721
I00
sV23837656
p1722
I00
sV23006747
p1723
I00
sV10325427
p1724
I00
sV16381923
p1725
I00
sV14859080
p1726
I00
sV25157147
p1727
I00
sV17054419
p1728
I00
sV17054416
p1729
I00
sV18177721
p1730
I00
sV14681372
p1731
I00
sV15509886
p1732
I00
sV22148170
p1733
I00
sV19131951
p1734
I00
sV25564863
p1735
I00
sV20151446
p1736
I00
sV20024077
p1737
I00
sV23360254
p1738
I00
sV6798439
p1739
I00
sV19381358
p1740
I00
sV8794873
p1741
I00
sV19690570
p1742
I00
sV18927357
p1743
I00
sV18203827
p1744
I00
sS'22119273'
p1745
I01
sV18477636
p1746
I00
sV18983710
p1747
I00
sV18174163
p1748
I00
sV18436574
p1749
I00
sV18516045
p1750
I00
sV12874056
p1751
I00
sV11277707
p1752
I00
sV3957870
p1753
I00
sV22043295
p1754
I00
sV23741341
p1755
I00
sV23025763
p1756
I00
sV17976081
p1757
I00
sV15860371
p1758
I00
sV26313928
p1759
I00
sV11805338
p1760
I00
sV21538458
p1761
I00
sV8991852
p1762
I00
sV19680427
p1763
I00
sV14725863
p1764
I00
sV16707276
p1765
I00
sV16039160
p1766
I00
sV22319433
p1767
I00
sV17198971
p1768
I00
sV18795284
p1769
I00
sV21757467
p1770
I00
sV21824409
p1771
I00
sV15264259
p1772
I00
sV19416711
p1773
I00
sV19052323
p1774
I00
sV7691404
p1775
I00
sV3540574
p1776
I00
sV19728741
p1777
I00
sV17330044
p1778
I00
sV17005183
p1779
I00
sS'19190405'
p1780
I01
sV9328646
p1781
I00
sV21325265
p1782
I00
sV17943116
p1783
I00
sV21035178
p1784
I00
sV8304987
p1785
I00
sV17170577
p1786
I00
sV11607175
p1787
I00
sV15542455
p1788
I00
sV19880382
p1789
I00
sV10722510
p1790
I00
sV10629182
p1791
I00
sV19640844
p1792
I00
sV21443633
p1793
I00
sV18687109
p1794
I00
sV22434830
p1795
I00
sV21890679
p1796
I00
sV25475882
p1797
I00
sV20351247
p1798
I00
sV24367711
p1799
I00
sV18819722
p1800
I00
sV18344340
p1801
I00
sV28357259
p1802
I00
sV16782788
p1803
I00
sV23162084
p1804
I00
sV23487778
p1805
I00
sV20112162
p1806
I00
sV22367118
p1807
I00
sV22727112
p1808
I00
sV8805245
p1809
I00
sV22221059
p1810
I00
sV22025222
p1811
I00
sV26592129
p1812
I00
sV9381177
p1813
I00
sV15489308
p1814
I00
sV9381173
p1815
I00
sV24335485
p1816
I00
sV23103705
p1817
I00
sV21466230
p1818
I00
sV22800682
p1819
I00
sV17038190
p1820
I00
sV26476454
p1821
I00
sV22289213
p1822
I00
sV22125297
p1823
I00
sV13129524
p1824
I00
sV19946878
p1825
I00
sV18772282
p1826
I00
sV22217731
p1827
I00
sV11062433
p1828
I00
sV17727659
p1829
I00
sV7022156
p1830
I00
sV16426051
p1831
I00
sV21556065
p1832
I00
sV26862882
p1833
I00
sV13958485
p1834
I00
sV22629571
p1835
I00
sV22101153
p1836
I00
sV16346746
p1837
I00
sV15653829
p1838
I00
sV23090085
p1839
I00
sV17698493
p1840
I00
sV15923052
p1841
I00
sV25843709
p1842
I00
sV24831709
p1843
I00
sV16461408
p1844
I00
sV24430943
p1845
I00
sV17318209
p1846
I00
sV22867903
p1847
I00
sV17030505
p1848
I00
sV23138691
p1849
I00
sV10869432
p1850
I00
sV22967080
p1851
I00
sV15054140
p1852
I00
sV18948289
p1853
I00
sV18483554
p1854
I00
sV23028926
p1855
I00
sV12076625
p1856
I00
sV26905627
p1857
I00
sV365223
p1858
I00
sV20705610
p1859
I00
sV1544568
p1860
I00
sV21755356
p1861
I00
sV18337718
p1862
I00
sV14638682
p1863
I00
sV15608257
p1864
I00
sV14681412
p1865
I00
sV15608251
p1866
I00
sV21051339
p1867
I00
sV16095938
p1868
I00
sV17142228
p1869
I00
sV13671378
p1870
I00
sV17488841
p1871
I00
sV18003657
p1872
I00
sV17824955
p1873
I00
sV18003653
p1874
I00
sV17385748
p1875
I00
sV18476868
p1876
I00
sV19360125
p1877
I00
sV13181867
p1878
I00
sV19808881
p1879
I00
sV20686576
p1880
I00
sV15037104
p1881
I00
sV16081474
p1882
I00
sV19648136
p1883
I00
sV22012626
p1884
I00
sV19356237
p1885
I00
sV23667655
p1886
I00
sV8550201
p1887
I00
sV12057953
p1888
I00
sV12193620
p1889
I00
sV18553724
p1890
I00
sV20186266
p1891
I00
sV15129285
p1892
I00
sV14718379
p1893
I00
sV24658259
p1894
I00
sV14718373
p1895
I00
sV24031676
p1896
I00
sV18767192
p1897
I01
sV10725536
p1898
I00
sV10937935
p1899
I00
sV18727146
p1900
I00
sV21747749
p1901
I00
sV27152931
p1902
I01
sV16381932
p1903
I00
sV22760628
p1904
I00
sV22699610
p1905
I00
sS'23349810'
p1906
I01
sV18218092
p1907
I00
sV23815980
p1908
I00
sV10821283
p1909
I00
sV21969677
p1910
I00
sS'23849719'
p1911
I01
sV14597658
p1912
I00
sV23935500
p1913
I00
sV21983269
p1914
I00
sV9070434
p1915
I00
sV17584497
p1916
I01
sV22252984
p1917
I00
sV25415239
p1918
I00
sV9841492
p1919
I00
sV20489017
p1920
I00
sV21600757
p1921
I00
sV20562225
p1922
I00
sV8944766
p1923
I00
sV1946389
p1924
I00
sV11496667
p1925
I00
sV21664817
p1926
I00
sV11473602
p1927
I00
sV17608794
p1928
I00
sV20969759
p1929
I00
sS'28266498'
p1930
I01
sV16407165
p1931
I00
sV22720753
p1932
I00
sV24148076
p1933
I00
sV23391889
p1934
I00
sV18444897
p1935
I00
sV24030781
p1936
I00
sV9278464
p1937
I00
sV18936753
p1938
I00
sV18936752
p1939
I00
sV12761067
p1940
I00
sV20959820
p1941
I00
sV22422314
p1942
I00
sV12429065
p1943
I00
sV3294162
p1944
I00
sV12202830
p1945
I00
sV19597503
p1946
I01
sV12369090
p1947
I00
sV19969536
p1948
I00
sV17715365
p1949
I00
sV20212490
p1950
I00
sV15774027
p1951
I00
sV17276140
p1952
I00
sV16163345
p1953
I00
sV22158444
p1954
I00
sV23190300
p1955
I00
sV22065419
p1956
I00
sV12538249
p1957
I00
sV15520792
p1958
I00
sV24031811
p1959
I00
sV21627340
p1960
I00
sV14534167
p1961
I00
sV22041191
p1962
I00
sV20046865
p1963
I00
sV17475672
p1964
I00
sV17132829
p1965
I00
sV8706750
p1966
I00
sV15683257
p1967
I00
sV11807064
p1968
I00
sV8063103
p1969
I00
sV11807062
p1970
I00
sV20102603
p1971
I00
sV10422220
p1972
I00
sV7960099
p1973
I00
sV19468287
p1974
I00
sV15027866
p1975
I00
sS'24957377'
p1976
I01
sV18595046
p1977
I00
sS'20807838'
p1978
I01
sV18631021
p1979
I00
sV24742179
p1980
I00
sV2236985
p1981
I00
sV19710709
p1982
I00
sV16251308
p1983
I00
sV18417228
p1984
I00
sV1886522
p1985
I00
sV17526704
p1986
I00
sV8346441
p1987
I00
sV11034217
p1988
I00
sV25245398
p1989
I00
sV17367719
p1990
I00
sV6606682
p1991
I00
sV24972703
p1992
I00
sV25575024
p1993
I00
sV18183306
p1994
I00
sV25501888
p1995
I00
sV11289788
p1996
I00
sV20957118
p1997
I00
sV12006566
p1998
I00
sV22235860
p1999
I00
sV18487331
p2000
I00
sV16493140
p2001
I00
sV18428772
p2002
I00
sV22510989
p2003
I00
sV16346643
p2004
I00
sV11567142
p2005
I00
sV25746962
p2006
I00
sV22713172
p2007
I00
sV12011098
p2008
I00
sV15860428
p2009
I00
sV19337271
p2010
I00
sV16237010
p2011
I00
sV19431729
p2012
I00
sV20936122
p2013
I00
sV21847114
p2014
I00
sV17264878
p2015
I00
sV17291820
p2016
I00
sV23874203
p2017
I00
sV17159923
p2018
I00
sV26229523
p2019
I00
sV19464354
p2020
I00
sV24180668
p2021
I00
sV11586360
p2022
I00
sV23335420
p2023
I00
sV15960801
p2024
I00
sV19059335
p2025
I00
sV19053772
p2026
I00
sV9770490
p2027
I00
sV15604828
p2028
I00
sV16337634
p2029
I00
sV22076150
p2030
I00
sV20932952
p2031
I00
sV25257022
p2032
I00
sV25814606
p2033
I00
sV12775844
p2034
I00
sV25929487
p2035
I00
sV18006545
p2036
I00
sV17406255
p2037
I00
sV16000019
p2038
I00
sV16319065
p2039
I00
sV17237053
p2040
I00
sV18331064
p2041
I00
sV25447783
p2042
I00
sV25572393
p2043
I00
sV20008186
p2044
I00
sV18609648
p2045
I00
sV7797557
p2046
I00
sV25325701
p2047
I00
sV20461071
p2048
I00
sV8537297
p2049
I00
sV12435450
p2050
I00
sV18846087
p2051
I00
sV21694718
p2052
I00
sV14502990
p2053
I00
sV19154080
p2054
I00
sV18539450
p2055
I00
sV15630516
p2056
I00
sV16357206
p2057
I00
sV23323971
p2058
I00
sV21561673
p2059
I00
sV23022739
p2060
I00
sV10099424
p2061
I00
sV11294796
p2062
I00
sV28111098
p2063
I00
sV15576366
p2064
I00
sV12690188
p2065
I00
sV21986828
p2066
I00
sV17922569
p2067
I00
sV15275357
p2068
I00
sV22320313
p2069
I00
sV22851531
p2070
I00
sV14602924
p2071
I00
sV22817898
p2072
I00
sV22241476
p2073
I00
sV22663945
p2074
I00
sV17962297
p2075
I00
sV20934866
p2076
I00
sV17086184
p2077
I00
sV23161672
p2078
I00
sV14679360
p2079
I00
sV22403401
p2080
I00
sV22960854
p2081
I00
sV24050924
p2082
I00
sV15340383
p2083
I00
sV28165493
p2084
I00
sV11258480
p2085
I00
sV19056824
p2086
I00
sV16631753
p2087
I00
sV23067238
p2088
I01
sV12714058
p2089
I00
sV19490098
p2090
I00
sV15454420
p2091
I00
sV19460998
p2092
I00
sV26673716
p2093
I00
sV19763335
p2094
I00
sV12931192
p2095
I00
sV19763339
p2096
I00
sV20532210
p2097
I00
sV11587566
p2098
I00
sV16289778
p2099
I00
sV12137537
p2100
I00
sV14627811
p2101
I00
sV15240442
p2102
I00
sV23738527
p2103
I00
sV16261177
p2104
I00
sV166569
p2105
I00
sV15197467
p2106
I00
sV3667534
p2107
I00
sV21107647
p2108
I00
sV25695257
p2109
I00
sV14681350
p2110
I00
sV26010448
p2111
I00
sV23203881
p2112
I00
sV22246674
p2113
I00
sV23023260
p2114
I00
sV20616280
p2115
I00
sV14759262
p2116
I00
sV22704625
p2117
I00
sV27239563
p2118
I00
sV16452419
p2119
I00
sV23587224
p2120
I00
sV24267658
p2121
I00
sS'26542446'
p2122
I01
sV20041200
p2123
I00
sV19939940
p2124
I00
sV17449819
p2125
I00
sV25562137
p2126
I01
sV22697060
p2127
I00
sS'28085902'
p2128
I01
sV15499007
p2129
I00
sV22946681
p2130
I00
sV12867463
p2131
I00
sV23188714
p2132
I00
sV20957472
p2133
I00
sV17568945
p2134
I00
sV20188855
p2135
I00
sV24662145
p2136
I00
sV19696104
p2137
I00
sV16349164
p2138
I00
sV8366890
p2139
I00
sV19564482
p2140
I00
sV21143796
p2141
I00
sV27273460
p2142
I00
sV16958757
p2143
I00
sV15342600
p2144
I00
sV20081869
p2145
I00
sV16161998
p2146
I00
sV10508846
p2147
I00
sV16524470
p2148
I00
sS'22135291'
p2149
I01
sV12240834
p2150
I00
sV20172043
p2151
I00
sV11454754
p2152
I00
sV7961393
p2153
I00
sV22934050
p2154
I00
sV22969169
p2155
I00
sV17284470
p2156
I00
sV11386933
p2157
I00
sV26527717
p2158
I00
sS'20488753'
p2159
I01
sV16573697
p2160
I00
sV18644147
p2161
I00
sV19646250
p2162
I00
sV10581430
p2163
I00
sV23307777
p2164
I00
sV10592281
p2165
I00
sV19128495
p2166
I00
sV10760244
p2167
I00
sV15369770
p2168
I00
sV11432781
p2169
I00
sV22041763
p2170
I00
sV22661972
p2171
I00
sV15466049
p2172
I00
sV23974365
p2173
I00
sV9687472
p2174
I00
sV16577680
p2175
I00
sS'18937253'
p2176
I01
sV18937252
p2177
I00
sV20417581
p2178
I00
sV8743688
p2179
I00
sV20211023
p2180
I00
sV9862811
p2181
I00
sV20392818
p2182
I00
sV22378269
p2183
I00
sV22722194
p2184
I00
sV23194418
p2185
I00
sV17173669
p2186
I00
sV21862391
p2187
I00
sV22161221
p2188
I00
sV16472304
p2189
I00
sV19287049
p2190
I00
sV9150411
p2191
I00
sV10487864
p2192
I00
sV21423717
p2193
I00
sV19447673
p2194
I00
sV20001958
p2195
I00
sV15910282
p2196
I00
sV16381955
p2197
I00
sV20307315
p2198
I00
sV21456628
p2199
I00
sV16319894
p2200
I00
sV12202792
p2201
I00
sV6819292
p2202
I00
sV21687783
p2203
I00
sV23945601
p2204
I00
sV22309310
p2205
I00
sV21746901
p2206
I00
sV12470740
p2207
I00
sV21945931
p2208
I00
sV18642243
p2209
I00
sV12732555
p2210
I00
sV22069723
p2211
I00
sV12200425
p2212
I00
sV19935659
p2213
I00
sV15790844
p2214
I00
sV16648134
p2215
I00
sV8477725
p2216
I00
sV20160056
p2217
I00
sV16890916
p2218
I00
sV20191329
p2219
I00
sV2672462
p2220
I00
sV20531467
p2221
I00
sV238949
p2222
I00
sV22823282
p2223
I00
sV12073338
p2224
I00
sV12660303
p2225
I00
sV18397776
p2226
I00
sV22593721
p2227
I00
sV24970063
p2228
I00
sV19948857
p2229
I00
sV22927779
p2230
I00
sV21404266
p2231
I00
sV5449325
p2232
I00
sV23137768
p2233
I00
sV17603872
p2234
I00
sV22807668
p2235
I00
sV22770837
p2236
I00
sV12611808
p2237
I00
sV18157128
p2238
I00
sV21515217
p2239
I00
sV12424129
p2240
I00
sV21516114
p2241
I00
sV19479083
p2242
I00
sV23394962
p2243
I00
sV17060533
p2244
I00
sV20399634
p2245
I00
sV24558441
p2246
I00
sV12368244
p2247
I00
sV8491720
p2248
I00
sV20609580
p2249
I00
sV19801464
p2250
I00
sV16299075
p2251
I00
sV17483213
p2252
I00
sV16339357
p2253
I00
sV11956751
p2254
I00
sV22262672
p2255
I00
sV21081510
p2256
I00
sV12519996
p2257
I00
sV18727018
p2258
I00
sV19996319
p2259
I00
sV19141168
p2260
I00
sV22270182
p2261
I00
sV18056069
p2262
I00
sV17195475
p2263
I00
sS'24218219'
p2264
I01
sV383936
p2265
I00
sV23112813
p2266
I00
sV18679674
p2267
I00
sV17681626
p2268
I00
sV22281772
p2269
I00
sV15470465
p2270
I00
sV20832321
p2271
I00
sV20608743
p2272
I00
sV20335275
p2273
I00
sV24743257
p2274
I00
sV21928291
p2275
I00
sV18957442
p2276
I00
sV10734204
p2277
I00
sV21322280
p2278
I00
sV19004872
p2279
I00
sV16959973
p2280
I00
sV24302289
p2281
I00
sV21943889
p2282
I00
sV26566239
p2283
I01
sV20587772
p2284
I00
sV22118946
p2285
I00
sV18362917
p2286
I00
sV24778639
p2287
I00
sV20190787
p2288
I00
sV18974823
p2289
I00
sV12590111
p2290
I00
sV20649990
p2291
I00
sV8993539
p2292
I00
sV18261238
p2293
I00
sV26425993
p2294
I00
sV18587410
p2295
I00
sV21949491
p2296
I00
sV21949492
p2297
I00
sV22027554
p2298
I00
sV21370473
p2299
I00
sV21495048
p2300
I00
sV8220443
p2301
I00
sS'20444302'
p2302
I01
sV17972330
p2303
I00
sV20385544
p2304
I00
sV19095898
p2305
I00
sV22909801
p2306
I00
sV20595611
p2307
I00
sV18592570
p2308
I00
sV16446402
p2309
I00
sV15388866
p2310
I00
sV15317763
p2311
I00
sV23195852
p2312
I00
sV20863289
p2313
I00
sV19063932
p2314
I00
sV15325581
p2315
I00
sV22857267
p2316
I00
sV11832955
p2317
I00
sV16822574
p2318
I00
sV15375149
p2319
I00
sV22928018
p2320
I00
sV11341306
p2321
I00
sV21385409
p2322
I00
sV15247105
p2323
I00
sV15778709
p2324
I00
sV20498836
p2325
I00
sV17202167
p2326
I00
sV20920235
p2327
I00
sV17202168
p2328
I00
sV25578304
p2329
I01
sV22718433
p2330
I00
sV12538263
p2331
I00
sS'24909362'
p2332
I01
sV17882155
p2333
I01
sV19403257
p2334
I00
sV25187626
p2335
I00
sV18497287
p2336
I00
sV23632383
p2337
I00
sV23138306
p2338
I00
sV15930493
p2339
I00
sV16381922
p2340
I00
sV20709898
p2341
I00
sV18923393
p2342
I00
sV25901891
p2343
I00
sV23443005
p2344
I00
sV20709142
p2345
I00
sV18252737
p2346
I00
sV11337403
p2347
I00
sV22860901
p2348
I00
sV24421039
p2349
I00
sV21995956
p2350
I01
sV19490860
p2351
I00
sV10224113
p2352
I00
sV15223320
p2353
I00
sV21049934
p2354
I00
sV22921355
p2355
I00
sV16154652
p2356
I00
sV24089473
p2357
I00
sV15738951
p2358
I00
sV18075678
p2359
I00
sS'25345908'
p2360
I01
sV20646219
p2361
I00
sV24811519
p2362
I00
sV22286016
p2363
I00
sV4830198
p2364
I00
sV23132118
p2365
I00
sV19487243
p2366
I00
sV22023736
p2367
I00
sV19218089
p2368
I00
sV19487246
p2369
I00
sV19055772
p2370
I00
sV10740295
p2371
I00
sV9545322
p2372
I00
sV19357639
p2373
I00
sV25473431
p2374
I00
sV16840735
p2375
I00
sV23210799
p2376
I00
sV25246554
p2377
I00
sV22823568
p2378
I00
sV19399432
p2379
I00
sV19399433
p2380
I00
sV19229315
p2381
I00
sV12627170
p2382
I00
sV19229310
p2383
I00
sV12824330
p2384
I00
sV10722730
p2385
I00
sV11349074
p2386
I00
sV11358695
p2387
I00
sV132964
p2388
I00
sV16478464
p2389
I00
sV19935646
p2390
I00
sV10592255
p2391
I00
sV22188344
p2392
I00
sV21331438
p2393
I00
sV20117850
p2394
I00
sV12399584
p2395
I00
sV10788522
p2396
I00
sV25348405
p2397
I00
sV16301543
p2398
I00
sV17845071
p2399
I00
sV10465052
p2400
I00
sV21962087
p2401
I01
sS'23704901'
p2402
I01
sV16749936
p2403
I00
sV23708492
p2404
I00
sV17108355
p2405
I00
sV15140833
p2406
I00
sV22678283
p2407
I00
sV17881571
p2408
I00
sV22054827
p2409
I00
sV23300594
p2410
I00
sV15970265
p2411
I00
sV11745171
p2412
I00
sV19495910
p2413
I00
sV19357641
p2414
I00
sV18697772
p2415
I00
sV19116658
p2416
I00
sV19482960
p2417
I00
sV21711532
p2418
I00
sV10746759
p2419
I00
sV22296988
p2420
I00
sV11152613
p2421
I00
sV23140241
p2422
I00
sV16531492
p2423
I00
sV25478805
p2424
I00
sV15461428
p2425
I00
sV16840530
p2426
I00
sV12177072
p2427
I00
sV16477324
p2428
I00
sV25793551
p2429
I00
sV25098325
p2430
I00
sV24871200
p2431
I00
sV18599740
p2432
I00
sV18701645
p2433
I00
sV12657046
p2434
I00
sV20663661
p2435
I00
sV14973188
p2436
I00
sV22699794
p2437
I00
sV26400175
p2438
I00
sV20430689
p2439
I00
sV22765044
p2440
I00
sV15470454
p2441
I00
sV10802651
p2442
I00
sV17993682
p2443
I00
sV27367830
p2444
I00
sV24688677
p2445
I00
sV21704063
p2446
I00
sV18760356
p2447
I00
sV16558021
p2448
I00
sV16381960
p2449
I00
sV18685186
p2450
I00
sV24777859
p2451
I00
sV8494895
p2452
I00
sV12605306
p2453
I00
sV17406294
p2454
I00
sV16397497
p2455
I00
sV17437026
p2456
I00
sV23223453
p2457
I00
sV12140549
p2458
I00
sV2141094
p2459
I00
sV2141093
p2460
I00
sV20637597
p2461
I00
sV9727030
p2462
I00
sV12740584
p2463
I00
sV16760253
p2464
I00
sV22978754
p2465
I00
sS'26592771'
p2466
I01
sV26546518
p2467
I00
sV8368835
p2468
I00
sV22102576
p2469
I00
sV23206561
p2470
I00
sV20890966
p2471
I00
sV16046905
p2472
I00
sV6511349
p2473
I00
sV13351639
p2474
I00
sV22227532
p2475
I00
sV21092312
p2476
I00
sV23935467
p2477
I00
sV15499023
p2478
I00
sV16348709
p2479
I00
sV11934293
p2480
I00
sV22644296
p2481
I00
sV20520606
p2482
I00
sV23940533
p2483
I00
sV21402949
p2484
I00
sV12893887
p2485
I00
sV18623053
p2486
I00
sV22092858
p2487
I00
sV8068044
p2488
I00
sV9504803
p2489
I00
sV16617034
p2490
I00
sV15644202
p2491
I00
sV16667440
p2492
I00
sV19321003
p2493
I00
sV19348698
p2494
I00
sV18553577
p2495
I00
sV28027318
p2496
I00
sV17698812
p2497
I00
sV22576654
p2498
I00
sV21881889
p2499
I00
sV25367300
p2500
I00
sV25919614
p2501
I00
sV22582016
p2502
I00
sV15541746
p2503
I00
sV11704268
p2504
I00
sV24302732
p2505
I00
sV24270786
p2506
I00
sV23216785
p2507
I00
sV19249239
p2508
I00
sV23631471
p2509
I00
sV20835998
p2510
I00
sV14580578
p2511
I00
sV17028780
p2512
I00
sV20482655
p2513
I00
sV24086468
p2514
I00
sV24352242
p2515
I00
sV17274071
p2516
I00
sV4378482
p2517
I00
sV11544364
p2518
I00
sV21846501
p2519
I00
sV21562560
p2520
I00
sV18986839
p2521
I00
sV15285901
p2522
I00
sV22119097
p2523
I00
sS'26379769'
p2524
I01
sV18710863
p2525
I00
sV22689914
p2526
I00
sV21266071
p2527
I00
sS'28767679'
p2528
I01
sV17660748
p2529
I00
sV19191979
p2530
I00
sV18039703
p2531
I00
sV10074354
p2532
I00
sV23072438
p2533
I00
sV25414356
p2534
I00
sV21083885
p2535
I00
sV21456517
p2536
I00
sV25453232
p2537
I00
sV17130148
p2538
I00
sV16233377
p2539
I00
sV17408509
p2540
I00
sV26626103
p2541
I00
sV15808744
p2542
I00
sV1180967
p2543
I00
sV21082427
p2544
I00
sV12368864
p2545
I00
sV9414323
p2546
I00
sS'17388807'
p2547
I01
sV16418748
p2548
I00
sV16204195
p2549
I00
sS'24774833'
p2550
I01
sV16319876
p2551
I00
sV16847258
p2552
I00
sV6387704
p2553
I00
sV16646809
p2554
I00
sV24778240
p2555
I00
sV10785375
p2556
I00
sV20084111
p2557
I00
sV19215296
p2558
I00
sV16332763
p2559
I00
sV11997342
p2560
I00
sV22662210
p2561
I00
sV11997340
p2562
I00
sV20090895
p2563
I00
sV4568761
p2564
I00
sV22841915
p2565
I00
sV23705993
p2566
I00
sV20107021
p2567
I00
sV14735121
p2568
I00
sV3109383
p2569
I00
sV22020181
p2570
I00
sV21602273
p2571
I00
sV22366554
p2572
I00
sV22432037
p2573
I00
sV22283470
p2574
I00
sV20298521
p2575
I00
sV23143106
p2576
I00
sV20615387
p2577
I00
sV22683805
p2578
I00
sV10852933
p2579
I00
sV6999324
p2580
I00
sV17332020
p2581
I00
sV15336407
p2582
I00
sV22198197
p2583
I00
sV23210477
p2584
I00
sV17965431
p2585
I00
sV11356164
p2586
I00
sV21268270
p2587
I00
sV15980361
p2588
I00
sV16020728
p2589
I00
sV16788595
p2590
I00
sV25373505
p2591
I00
sV10677844
p2592
I00
sV22309680
p2593
I00
sV19359585
p2594
I00
sV23047651
p2595
I00
sV20011109
p2596
I00
sV22947602
p2597
I00
sS'28103880'
p2598
I01
sV16895435
p2599
I00
sV22627006
p2600
I00
sS'20421197'
p2601
I01
sV16686963
p2602
I00
sV14751266
p2603
I00
sV20540108
p2604
I00
sV22127870
p2605
I00
sV18849451
p2606
I00
sV17873029
p2607
I00
sV21549959
p2608
I00
sV26454094
p2609
I00
sV22275868
p2610
I00
sV16347502
p2611
I00
sV22640594
p2612
I00
sV18392985
p2613
I00
sV18392986
p2614
I00
sV22228769
p2615
I00
sS'28724354'
p2616
I01
sV21558479
p2617
I00
sV20007013
p2618
I00
sV15580779
p2619
I00
sV26060916
p2620
I00
sV19234110
p2621
I00
sV15834800
p2622
I00
sV21689470
p2623
I00
sV10939248
p2624
I00
sV11075367
p2625
I00
sV8744570
p2626
I00
sV10935750
p2627
I00
sV11439165
p2628
I00
sV12368866
p2629
I00
sV16708762
p2630
I00
sV15755956
p2631
I00
sV22131085
p2632
I00
sV3534538
p2633
I00
sV15299119
p2634
I00
sV22419742
p2635
I00
sS'28561030'
p2636
I01
sV15600352
p2637
I00
sV15123830
p2638
I00
sV19716475
p2639
I00
sV11242119
p2640
I00
sV8849441
p2641
I00
sV24992475
p2642
I00
sV21867520
p2643
I00
sV23542591
p2644
I00
sV25874676
p2645
I00
sS'19008181'
p2646
I01
sV18056714
p2647
I00
sV11711677
p2648
I00
s.