(lp0
S'28767679'
p1
aV20426874
p2
aV18337718
p3
aV25257022
p4
aV14735121
p5
aV23800136
p6
aV17408485
p7
aV14597658
p8
aV24553913
p9
aV21747784
p10
aV14757824
p11
aV24721211
p12
aV19054115
p13
aV23455439
p14
aV17237039
p15
aV24691166
p16
aV24742179
p17
aV17584497
p18
aV19479083
p19
aV25575307
p20
aV16772264
p21
aV21124952
p22
aV21592777
p23
aV23357920
p24
aV24225315
p25
aV16418748
p26
aV17526522
p27
aV20150127
p28
aV20212490
p29
aV20637597
p30
aV11034217
p31
aV23624469
p32
aV19287049
p33
aV22422314
p34
aV20649990
p35
aV9847135
p36
aV17172310
p37
aV19729372
p38
aV15096640
p39
aV20836035
p40
aS'28732479'
p41
aV15519045
p42
aV20086087
p43
aV23762452
p44
aV25373505
p45
aV24992475
p46
aV2332165
p47
aV12360191
p48
aV17005799
p49
aV18981252
p50
aV22208880
p51
aV23712350
p52
aV23874203
p53
aV23271832
p54
aV26518910
p55
aV19001074
p56
aV10939248
p57
aV11586360
p58
aV27367830
p59
aV12885266
p60
aV2674131
p61
aV11432781
p62
aV18990185
p63
aV3098730
p64
aV4373439
p65
aV12142430
p66
aV25187626
p67
aV16648134
p68
aV21862391
p69
aV7836281
p70
aV16870762
p71
aV24438235
p72
aV25636620
p73
aV23006747
p74
aV16291690
p75
aV10807389
p76
aV25453232
p77
aV4364328
p78
aV28165493
p79
aV20065026
p80
aV11292689
p81
aV9023360
p82
aV27345215
p83
aV2852135
p84
aV18710863
p85
aV21995956
p86
aV17768254
p87
aV22313799
p88
aV15342600
p89
aV17284612
p90
aV1889045
p91
aV8993858
p92
aV16188402
p93
aV26775926
p94
aV24778639
p95
aV19052323
p96
aV27284850
p97
aV21724998
p98
aV25139902
p99
aV12000771
p100
aV23298813
p101
aV20057383
p102
aV22509034
p103
aV24421039
p104
aV22139502
p105
aV15557737
p106
aV20855724
p107
aV17608794
p108
aV19701461
p109
aS'28724354'
p110
aV15183112
p111
aV25075834
p112
aV11378031
p113
aV11781362
p114
aV12435450
p115
aV8816746
p116
aV10722510
p117
aV25331708
p118
aV17330044
p119
aV16731623
p120
aV11006474
p121
aV22270182
p122
aV22704625
p123
aV27903906
p124
aV8774709
p125
aV20160056
p126
aV26694030
p127
aV21988831
p128
aV17202168
p129
aV24913167
p130
aV24352242
p131
aV3886898
p132
aV17005183
p133
aV23420506
p134
aV28357259
p135
aV22151036
p136
aV9153195
p137
aV21172910
p138
aV25635122
p139
aV28093455
p140
aV25473431
p141
aV24674620
p142
aV19068099
p143
aV23593322
p144
aV11125051
p145
aV23793264
p146
aV25395010
p147
aV19881520
p148
aV20334617
p149
aV19218089
p150
aV11090624
p151
aV26626103
p152
aV26759150
p153
aV25001103
p154
aV20709898
p155
aV27466371
p156
aV25893156
p157
aV12234732
p158
aV10954735
p159
aV21986828
p160
aV2866244
p161
aV23116403
p162
aV21709259
p163
aV11832955
p164
aV26215764
p165
aV26060916
p166
aV2904149
p167
aV20823846
p168
aV16039160
p169
aV26010448
p170
aV15037104
p171
aV16020728
p172
aV25843709
p173
aV23345430
p174
aV18364711
p175
aV23431146
p176
aV21912516
p177
aV19728741
p178
aV21203490
p179
aV28027318
p180
aV12473363
p181
aV25514047
p182
aV16840735
p183
aV8710411
p184
aV12368864
p185
aV26355219
p186
aV5310029
p187
aV26566239
p188
aV26476454
p189
aV27188163
p190
aV16161998
p191
aV21810278
p192
aV8068044
p193
aV20573956
p194
aV17822535
p195
aV25108687
p196
aV11814579
p197
aV21998306
p198
aV25605792
p199
aV20863228
p200
aV15848278
p201
aV28111098
p202
aV27768886
p203
aV24335485
p204
aV17060533
p205
aV23935500
p206
aV24880488
p207
aV27572396
p208
aV22860901
p209
aV18003657
p210
aV25367300
p211
aV26854499
p212
aV3157797
p213
aV17406635
p214
aV23173711
p215
aV25502314
p216
aV20221395
p217
aV23763941
p218
aV28333921
p219
aV27502771
p220
aV10931172
p221
aV16170412
p222
aV12824418
p223
aV11814576
p224
aV12931192
p225
aV19360125
p226
aV27832198
p227
aV19064257
p228
aV19871591
p229
aV12364805
p230
aV25352601
p231
aV25599401
p232
aV25264100
p233
aV25874676
p234
aV26001086
p235
aV26858419
p236
aV8304987
p237
aV19640844
p238
aV25695257
p239
aV15047998
p240
aV15078855
p241
aV16707276
p242
aV21385409
p243
aV25502316
p244
aV19591881
p245
aV25919029
p246
aV6348537
p247
aV3109383
p248
aV17276140
p249
aV19116658
p250
aV16573697
p251
aV22937810
p252
aV26150544
p253
aV17715365
p254
aV25831536
p255
aV16337634
p256
aV20920235
p257
aV18644147
p258
aS'28561030'
p259
aV25260700
p260
aV21964329
p261
aV15755952
p262
aV24482762
p263
aV23109570
p264
aV25157147
p265
aV26771930
p266
aV12153013
p267
aV27029554
p268
aV22661972
p269
aV10746759
p270
aV20190088
p271
aV24267221
p272
aV22675592
p273
aV22800682
p274
aV23071270
p275
aV25440056
p276
aV26527717
p277
aV26546518
p278
aV18516045
p279
aV11904428
p280
aV26673716
p281
aV20371929
p282
aV22170421
p283
aV18081590
p284
aV25414356
p285
aV22174252
p286
aV27112128
p287
aV20448175
p288
aV26336640
p289
aV9070434
p290
aV25367004
p291
aV26076725
p292
aV19403257
p293
aV19948857
p294
aV20211023
p295
aV25245398
p296
aV25746962
p297
aV24302732
p298
aV24778240
p299
aV24270786
p300
aV7747941
p301
aV18397776
p302
aV23210799
p303
aV23097129
p304
aV25540838
p305
aV27340816
p306
aV10440372
p307
aV23301019
p308
aV17546966
p309
aV16598256
p310
aV22763288
p311
aV8302217
p312
aV10820012
p313
aV25883286
p314
aV27273460
p315
aV11496667
p316
aV25857222
p317
aV17526785
p318
aV21903629
p319
aV26454094
p320
aV27311813
p321
aV15701695
p322
aV25977477
p323
aV25501888
p324
aS'28479069'
p325
aS'28266498'
p326
aV25848053
p327
aV19906986
p328
aV24682869
p329
aV22300758
p330
aV18842600
p331
aV26240352
p332
aV17526704
p333
aV21516114
p334
aV24163337
p335
aV20081869
p336
aV19889094
p337
aV16573679
p338
aV19787431
p339
aV18803686
p340
aV22865623
p341
aV23147702
p342
aV17139324
p343
aV23050773
p344
aV21368905
p345
aV22233419
p346
aV17410176
p347
aV22080096
p348
aV20134428
p349
aV18192387
p350
aV14617778
p351
aV23489027
p352
aV17038190
p353
aV19555510
p354
aV23836869
p355
aV25156090
p356
aV19528212
p357
aV21886097
p358
aV25793551
p359
aV22558288
p360
aV20802497
p361
aV23690396
p362
aV24068739
p363
aV23417797
p364
aV17873029
p365
aV10713430
p366
aV8550201
p367
aV24480613
p368
aV20532210
p369
aV25775563
p370
aV25297499
p371
aV15317763
p372
aV22911607
p373
aV26322631
p374
aV24413519
p375
aV25246554
p376
aV16126452
p377
aV22158444
p378
aV21483480
p379
aV22080510
p380
aV26578582
p381
aV17710100
p382
aV25057820
p383
aV21646454
p384
aV21164573
p385
aV24625893
p386
aV19249239
p387
aV17546021
p388
aV23144661
p389
aV24039572
p390
aV16477005
p391
aV23910799
p392
aS'28242343'
p393
aS'28217746'
p394
aV27055267
p395
aV22054827
p396
aV24551039
p397
aV25352553
p398
aV20979621
p399
aV17252281
p400
aV25873626
p401
aV26168400
p402
aV25302562
p403
aV22367118
p404
aV21320580
p405
aV16632515
p406
aV16749936
p407
aV27152931
p408
aV21141668
p409
aV20646219
p410
aV16686963
p411
aV14508477
p412
aS'28103880'
p413
aV24658259
p414
aV19128495
p415
aV11711677
p416
aV17822305
p417
aV16349432
p418
aV10805817
p419
aV21083885
p420
aV23613453
p421
aV22403401
p422
aV9687472
p423
aV26508635
p424
aV21356961
p425
aV24293654
p426
aV22510989
p427
aV15299119
p428
aV12706503
p429
aV25141288
p430
aV22529767
p431
aV20935180
p432
aV22319433
p433
aV21811229
p434
aV10740295
p435
aV8645235
p436
aV25869135
p437
aV12202358
p438
aV24972068
p439
aV24280389
p440
aV26108500
p441
aV17965431
p442
aV15329721
p443
aV14642354
p444
aV24225321
p445
aV23843751
p446
aV25155278
p447
aV16591901
p448
aV2231712
p449
aV24275496
p450
aV19456868
p451
aV20044452
p452
aV12566402
p453
aV12724375
p454
aV21268270
p455
aV13181867
p456
aV13671378
p457
aV26400175
p458
aV4986297
p459
aV16751554
p460
aV21062828
p461
aV20562225
p462
aV25831533
p463
aV5337756
p464
aV18795284
p465
aV20172043
p466
aV16397497
p467
aV5541006
p468
aS'28085902'
p469
aV16381885
p470
aV12534463
p471
aV21029416
p472
aV16958757
p473
aV4997718
p474
aV25845595
p475
aV19399432
p476
aV14580578
p477
aV27358602
p478
aV17116241
p479
aV1610179
p480
aV19770075
p481
aV24811519
p482
aV17483213
p483
aV22663945
p484
aV10364169
p485
aV18793442
p486
aV17259313
p487
aV2821345
p488
aV18974823
p489
aV18846089
p490
aV18261238
p491
aV20540110
p492
aV5963505
p493
aV12534466
p494
aV23555215
p495
aV17661516
p496
aV17616587
p497
aV24970063
p498
aV13398409
p499
aV16381923
p500
aV8368835
p501
aV21244678
p502
aV18697772
p503
aS'27736793'
p504
aV16452419
p505
aV23335420
p506
aV10592173
p507
aV24662145
p508
aV23443005
p509
aV23420771
p510
aV19946878
p511
aV22955879
p512
aV23028926
p513
aV21402209
p514
aV25427790
p515
aV18645197
p516
aV21992107
p517
aV18487331
p518
aV970945
p519
aV24743257
p520
aV20430689
p521
aV19850718
p522
aV15466049
p523
aV25578304
p524
aV17593909
p525
aV25505460
p526
aV3667534
p527
aV25733616
p528
aV11807560
p529
aV17543097
p530
aV22406173
p531
aV22446067
p532
aV17932057
p533
aV12611808
p534
aV24553424
p535
aV24089473
p536
aV1180967
p537
aV2115763
p538
aV22064852
p539
aV18791018
p540
aV12013276
p541
aV19627604
p542
aV17456186
p543
aV20587024
p544
aV17353934
p545
aV18203827
p546
aV20534465
p547
aV25562137
p548
aV16214803
p549
aV22872868
p550
aV16024727
p551
aV18587410
p552
aV23487778
p553
aV21814274
p554
aV15336407
p555
aV22139506
p556
aV21559116
p557
aV15494745
p558
aV21262829
p559
aV8477725
p560
aV24333786
p561
aV18378657
p562
aV20511510
p563
aV25329157
p564
aS'27783135'
p565
aS'27590448'
p566
aV16446402
p567
aV22018234
p568
aV25841013
p569
aV19888215
p570
aV19116616
p571
aV7986045
p572
aV22465599
p573
aV16163345
p574
aV18497287
p575
aV25130883
p576
aV22582016
p577
aV17475672
p578
aV22699609
p579
aV26905627
p580
aV15608200
p581
aV23927696
p582
aV26109480
p583
aV23022739
p584
aV25929487
p585
aV24430943
p586
aV26542567
p587
aV23982459
p588
aV18469830
p589
aV25901891
p590
aV25941371
p591
aV20383131
p592
aV22972297
p593
aV10516118
p594
aV24794435
p595
aV19004872
p596
aV15831718
p597
aV23741341
p598
aV25980407
p599
aV23898195
p600
aV23975157
p601
aV25132534
p602
aV22807668
p603
aV25184604
p604
aV24694716
p605
aV19801464
p606
aV27239563
p607
aV26511562
p608
aV11571135
p609
aV10821283
p610
aV22699610
p611
aS'27274991'
p612
aV24653705
p613
aV24961398
p614
aV25943547
p615
aV19696104
p616
aV20361498
p617
aV16380079
p618
aV18477636
p619
aV17967552
p620
aV18458946
p621
aV26592129
p622
aV15264259
p623
aV23139423
p624
aV9852098
p625
aV25919614
p626
aV10958638
p627
aV25699068
p628
aV24513656
p629
aV17031956
p630
aV23280012
p631
aV18332432
p632
aV17142228
p633
aV9395539
p634
aV18500999
p635
aV24965873
p636
aV24132122
p637
aV24966243
p638
aV19131951
p639
aV23224588
p640
aV16372010
p641
aV26862882
p642
aV18599740
p643
aV17341818
p644
aV16381856
p645
aV25572393
p646
aV17367719
p647
aV19458158
p648
aV24170397
p649
aV23667601
p650
aV17135193
p651
aV22989154
p652
aV8804822
p653
aV23542591
p654
aV24492599
p655
aV14530136
p656
aV23300594
p657
aV24225317
p658
aV12470740
p659
aV8744570
p660
aV18927357
p661
aV19239278
p662
aV23667655
p663
aV24413918
p664
aV16118665
p665
aV9504803
p666
aV25325701
p667
aV12698275
p668
aV25712422
p669
aV25971514
p670
aV19784673
p671
aV16944282
p672
aV12169656
p673
aV15071553
p674
aV20392818
p675
aV26117687
p676
aV17846036
p677
aV10995773
p678
aV9254694
p679
aV24214961
p680
aV24253303
p681
aV23925533
p682
aV26620784
p683
aV25210595
p684
aS'27186840'
p685
aV24688677
p686
aV26244934
p687
aV22383176
p688
aV15262934
p689
aV12240834
p690
aV19191979
p691
aV22719234
p692
aV26967105
p693
aV22308420
p694
aV25814606
p695
aV15910282
p696
aV18679674
p697
aV3294162
p698
aV25806041
p699
aV23935467
p700
aV24972703
p701
aV27060776
p702
aV19487243
p703
aV20664636
p704
aV11152613
p705
aV24050924
p706
aV24371155
p707
aV27009723
p708
aV26313928
p709
aV22332784
p710
aV18811941
p711
aV18183306
p712
aV24497502
p713
aV2454592
p714
aV23463245
p715
aV24733415
p716
aV8944766
p717
aV12692324
p718
aV21959131
p719
aV10891285
p720
aV16664694
p721
aV11258480
p722
aV15223320
p723
aV15459382
p724
aV15461428
p725
aV16577680
p726
aV22065419
p727
aV18923393
p728
aV23209127
p729
aV23177152
p730
aV20959003
p731
aV21755001
p732
aV26319892
p733
aV10677844
p734
aV17658702
p735
aV15849303
p736
aV25566296
p737
aV12356911
p738
aV21365259
p739
aV21562560
p740
aV26614658
p741
aV25548193
p742
aV22369158
p743
aV19082585
p744
aV27007317
p745
aV17484021
p746
aV24871200
p747
aV23631471
p748
aV25043335
p749
aV24325901
p750
aV25897682
p751
aV25489020
p752
aV26590126
p753
aV25348405
p754
aV25763104
p755
aV18028870
p756
aS'27014700'
p757
aV25575024
p758
aV25315283
p759
aV19154080
p760
aV26040289
p761
aV21556754
p762
aV25662277
p763
aV18958862
p764
aV24413396
p765
aV24723921
p766
aV20461071
p767
aV22419742
p768
aV24957647
p769
aV16880395
p770
aV17385748
p771
aV23708492
p772
aV19575587
p773
aV26102287
p774
aV22947602
p775
aV23678342
p776
aV24695071
p777
aV22640594
p778
aV12761066
p779
aV25564863
p780
aV26425993
p781
aV25988163
p782
aS'26615025'
p783
aV14681350
p784
aV19059335
p785
aV23161672
p786
aV20417581
p787
aV22923347
p788
aV23974365
p789
aV11439165
p790
aV19939940
p791
aV26528567
p792
aV17882155
p793
aV16986321
p794
aV3353225
p795
aV19955237
p796
aV10592235
p797
aV19755544
p798
aV18004212
p799
aV12952533
p800
aV22909801
p801
aV18003653
p802
aV10592255
p803
aV19969536
p804
aV15642094
p805
aV23234303
p806
aV15608257
p807
aV18992329
p808
aV20011109
p809
aV23172809
p810
aV17132829
p811
aV16381932
p812
aV16052034
p813
aV21921927
p814
aV17130147
p815
aV23143106
p816
aV21415141
p817
aV23131418
p818
aV23142828
p819
aV20689021
p820
aV22824957
p821
aV18039703
p822
aV15608167
p823
aV20436464
p824
aV17108355
p825
aV11858835
p826
aV17267599
p827
aV20019688
p828
aV24453953
p829
aV25315994
p830
aV22909788
p831
aV18483554
p832
aV17274839
p833
aV17573341
p834
aV22955987
p835
aV19119993
p836
aV16683036
p837
aV23203881
p838
aV23203987
p839
aV23395674
p840
aV1537278
p841
aV15908230
p842
aV12202761
p843
aV24267658
p844
aV12429065
p845
aV14506848
p846
aV7691404
p847
aV20712863
p848
aV22116062
p849
aV23180789
p850
aV20823849
p851
aV22644296
p852
aV17555602
p853
aV10901708
p854
aV24777859
p855
aV19996319
p856
aV23738527
p857
aV16632598
p858
aV21281568
p859
aV20823844
p860
aV24958259
p861
aV24441040
p862
aV21051348
p863
aV22615553
p864
aV20981092
p865
aV22184215
p866
aV23815980
p867
aV11752314
p868
aV18978789
p869
aV22749401
p870
aV12930833
p871
aV24678285
p872
aV10802651
p873
aV16333295
p874
aV15499007
p875
aV22118946
p876
aV11752248
p877
aV15197165
p878
aV25415239
p879
aV23218566
p880
aV16204195
p881
aV10919763
p882
aV24419221
p883
aS'26592771'
p884
aV11544364
p885
aV12351682
p886
aV24454426
p887
aV14623019
p888
aV24367711
p889
aV23137768
p890
aV6798439
p891
aV17320480
p892
aV21406205
p893
aV8889320
p894
aV2717219
p895
aV17170577
p896
aV22206037
p897
aV10785375
p898
aV18486941
p899
aV17188763
p900
aV15340383
p901
aV13129524
p902
aV19100863
p903
aV22041763
p904
aV2128337
p905
aV12049412
p906
aV15639138
p907
aV18625337
p908
aV15255887
p909
aV15389842
p910
aV7770070
p911
aV25478805
p912
aV9425822
p913
aV3666964
p914
aV15738951
p915
aV16103133
p916
aV5401460
p917
aV10099012
p918
aV5642081
p919
aV14550295
p920
aV20109253
p921
aV15463727
p922
aV10465052
p923
aS'26576489'
p924
aV22780918
p925
aV20863289
p926
aV20483918
p927
aV24086468
p928
aV26491422
p929
aV16381960
p930
aV24812336
p931
aV16574696
p932
aV21846501
p933
aV24516375
p934
aV17510664
p935
aV21623372
p936
aV22434830
p937
aV16941010
p938
aV25475882
p939
aV22997515
p940
aV9545322
p941
aV23632383
p942
aV21283140
p943
aV16950653
p944
aV17022660
p945
aV24180668
p946
aV14595777
p947
aV21902829
p948
aV22095399
p949
aV19321003
p950
aV24721214
p951
aV17625511
p952
aV12169551
p953
aV22709677
p954
aV23935056
p955
aV16606697
p956
aV10436161
p957
aV9381177
p958
aV20498836
p959
aV21190580
p960
aV19564482
p961
aV22548736
p962
aV18687109
p963
aV14622413
p964
aV14681452
p965
aV18808699
p966
aV9727030
p967
aV26079294
p968
aS'26542446'
p969
aS'26495291'
p970
aV21687783
p971
aV16381841
p972
aV18207462
p973
aV20823320
p974
aV15998455
p975
aV21253872
p976
aV19958496
p977
aV21918980
p978
aV15980585
p979
aV15886388
p980
aV21143796
p981
aV22369203
p982
aV24030781
p983
aV24558441
p984
aV17181854
p985
aV11928487
p986
aV24302289
p987
aV20570001
p988
aV19468287
p989
aV19843607
p990
aS'26421278'
p991
aV22720753
p992
aV24031676
p993
aV24999350
p994
aV15590779
p995
aV23837656
p996
aV17183312
p997
aV22411464
p998
aV16188921
p999
aV7535888
p1000
aV9818143
p1001
aV23858463
p1002
aV22589385
p1003
aV15790844
p1004
aV22184244
p1005
aV18803844
p1006
aV23587224
p1007
aV22424233
p1008
aV9381173
p1009
aS'26379769'
p1010
aV16531492
p1011
aV11127996
p1012
aV8305875
p1013
aV4199659
p1014
aV17284470
p1015
aV18374559
p1016
aV22402228
p1017
aV18444897
p1018
aV16113218
p1019
aV19489016
p1020
aV18359752
p1021
aV20177951
p1022
aV21827869
p1023
aV23138691
p1024
aV21602273
p1025
aV22138629
p1026
aV21691792
p1027
aV19833224
p1028
aV14907713
p1029
aV22789478
p1030
aV23945601
p1031
aV11263574
p1032
aV22614707
p1033
aS'25618865'
p1034
aV16997589
p1035
aV11708855
p1036
aV22921355
p1037
aV23541504
p1038
aV19619667
p1039
aV22817898
p1040
aV17437026
p1041
aV22857267
p1042
aV23086844
p1043
aV25447783
p1044
aV24831709
p1045
aV18772282
p1046
aV21881889
p1047
aV21889585
p1048
aV23394962
p1049
aV18059444
p1050
aV10356246
p1051
aV20876091
p1052
aV16617034
p1053
aV20134058
p1054
aV21846360
p1055
aV17138585
p1056
aV22760628
p1057
aV22596205
p1058
aV19554356
p1059
aV17463081
p1060
aV18364712
p1061
aV14571390
p1062
aV20031969
p1063
aV22138494
p1064
aV1453698
p1065
aV21139605
p1066
aV22629571
p1067
aV19714220
p1068
aV23417801
p1069
aV10935750
p1070
aV16246909
p1071
aV20419153
p1072
aV16199194
p1073
aV12466293
p1074
aV23041138
p1075
aV21081510
p1076
aV23210477
p1077
aV20403172
p1078
aV18077471
p1079
aV21059201
p1080
aV20929806
p1081
aV15923052
p1082
aV20558668
p1083
aV14681450
p1084
aV24762745
p1085
aV11030563
p1086
aV18711341
p1087
aV11997342
p1088
aV22388689
p1089
aV21414417
p1090
aV18588708
p1091
aV21824409
p1092
aV21322280
p1093
aV19646286
p1094
aV25386654
p1095
aV18379780
p1096
aV23520143
p1097
aV20064214
p1098
aV22076150
p1099
aV16375763
p1100
aV23026121
p1101
aV15962337
p1102
aV1453697
p1103
aV15520298
p1104
aV16289778
p1105
aV17088549
p1106
aV25447643
p1107
aV15885614
p1108
aV4902792
p1109
aV20151446
p1110
aV18392986
p1111
aV23647970
p1112
aV14985762
p1113
aV17408509
p1114
aV15454420
p1115
aV19467724
p1116
aV23892182
p1117
aV25098325
p1118
aV24632194
p1119
aV21136082
p1120
aV21663798
p1121
aV22262672
p1122
aV22253257
p1123
aV22392983
p1124
aV14992503
p1125
aV18769432
p1126
aV20305270
p1127
aV22770837
p1128
aV24211263
p1129
aV24148076
p1130
aV24369854
p1131
aS'25345908'
p1132
aS'25343869'
p1133
aV23194418
p1134
aV15197467
p1135
aV270744
p1136
aV9521918
p1137
aV15547264
p1138
aV16311593
p1139
aV16407165
p1140
aV16839195
p1141
aV17215359
p1142
aV17462086
p1143
aV18452587
p1144
aV18840283
p1145
aV19282964
p1146
aV19376871
p1147
aV19830716
p1148
aV20003240
p1149
aV10805808
p1150
aV11567142
p1151
aV11578926
p1152
aV11805338
p1153
aV11952893
p1154
aV12136097
p1155
aV12353619
p1156
aV12432395
p1157
aV12519996
p1158
aV12538249
p1159
aV12657046
p1160
aV12682299
p1161
aV12700248
p1162
aV20003500
p1163
aV20489017
p1164
aV20589842
p1165
aV22960854
p1166
aV23417799
p1167
aS'24909362'
p1168
aS'24774833'
p1169
aV22697060
p1170
aV24031811
p1171
aV11831469
p1172
aV5122805
p1173
aV12177072
p1174
aV7054151
p1175
aV22102576
p1176
aV10788522
p1177
aV23940533
p1178
aV15064768
p1179
aV16233377
p1180
aV1886522
p1181
aV20832321
p1182
aV3957870
p1183
aV16469879
p1184
aV18985611
p1185
aV20594333
p1186
aV20420838
p1187
aV11014182
p1188
aV19028900
p1189
aV10422220
p1190
aV19762644
p1191
aV18853410
p1192
aV18249414
p1193
aV21711532
p1194
aV18223075
p1195
aV22927779
p1196
aV19156357
p1197
aV22952675
p1198
aV10775659
p1199
aV17429571
p1200
aV16348709
p1201
aV14595782
p1202
aV16959973
p1203
aV16332763
p1204
aV20024077
p1205
aS'24712528'
p1206
aS'24628959'
p1207
aV11101318
p1208
aV23188456
p1209
aV11544225
p1210
aV11551473
p1211
aV11774006
p1212
aV6387704
p1213
aV1436739
p1214
aV8063103
p1215
aV8590661
p1216
aV9351205
p1217
aV13958485
p1218
aV15604828
p1219
aV15930493
p1220
aV16772023
p1221
aV17216441
p1222
aV18050939
p1223
aV18760356
p1224
aV18698648
p1225
aV18594774
p1226
aV19666133
p1227
aV20158237
p1228
aV20150928
p1229
aV20600382
p1230
aV21097890
p1231
aV21107647
p1232
aV21515217
p1233
aV21544146
p1234
aV21478350
p1235
aV21561673
p1236
aV21670981
p1237
aV22092858
p1238
aV23705993
p1239
aV11358695
p1240
aV23071359
p1241
aV20957118
p1242
aV23206561
p1243
aV8816738
p1244
aV22934050
p1245
aV18722501
p1246
aV22424225
p1247
aV19763335
p1248
aV15527509
p1249
aV21102456
p1250
aV22735334
p1251
aV10869432
p1252
aV21983269
p1253
aV8794873
p1254
aV6511349
p1255
aV21694718
p1256
aS'24222422'
p1257
aS'24222407'
p1258
aS'24218219'
p1259
aV23223453
p1260
aV21331438
p1261
aV22227532
p1262
aV15470465
p1263
aV14595858
p1264
aV16841068
p1265
aV22965049
p1266
aV22963408
p1267
aV22570597
p1268
aV21456628
p1269
aV15718163
p1270
aV21629293
p1271
aV21624498
p1272
aV10587658
p1273
aV23067238
p1274
aV19487246
p1275
aV4830198
p1276
aV18252821
p1277
aV21391558
p1278
aV17700859
p1279
aV22699794
p1280
aV21959288
p1281
aV23175637
p1282
aV12740584
p1283
aV20190787
p1284
aV22644330
p1285
aV17922843
p1286
aV20717559
p1287
aV23132118
p1288
aV22235860
p1289
aV23079505
p1290
aV23231771
p1291
aV16319876
p1292
aV22729179
p1293
aV22573601
p1294
aV21572414
p1295
aV22306209
p1296
aV23431559
p1297
aV22627006
p1298
aV23314297
p1299
aV22890819
p1300
aV21402949
p1301
aV23325797
p1302
aV22969169
p1303
aV17620040
p1304
aV22188344
p1305
aV23047651
p1306
aV23442083
p1307
aV22978754
p1308
aV21154879
p1309
aV21035178
p1310
aV22142312
p1311
aV9927716
p1312
aV23121761
p1313
aV22672124
p1314
aV18184107
p1315
aV16442279
p1316
aV22222943
p1317
aV22976213
p1318
aV22727112
p1319
aV21149340
p1320
aV22851531
p1321
aV21701501
p1322
aV17318209
p1323
aV22920415
p1324
aV22283470
p1325
aV20630880
p1326
aV20967426
p1327
aV16608839
p1328
aV22546835
p1329
aV21081972
p1330
aV12180966
p1331
aV23391889
p1332
aV16478464
p1333
aV19648136
p1334
aV20443163
p1335
aV22436749
p1336
aV23258413
p1337
aV17195475
p1338
aV22903296
p1339
aV20113715
p1340
aV23207804
p1341
aV18054049
p1342
aV22448154
p1343
aV21632543
p1344
aV23032445
p1345
aV22020181
p1346
aV11062433
p1347
aV20713038
p1348
aV19907483
p1349
aV19359585
p1350
aV23373753
p1351
aV18582974
p1352
aV22161355
p1353
aV22586093
p1354
aV22699233
p1355
aV21236981
p1356
aV23147668
p1357
aV21720319
p1358
aV23224572
p1359
aV17198971
p1360
aV23235874
p1361
aV15328044
p1362
aV23195852
p1363
aV22823568
p1364
aV15196499
p1365
aV19399433
p1366
aV15499023
p1367
aV22221059
p1368
aV22770225
p1369
aV18057018
p1370
aV22012626
p1371
aV22978366
p1372
aV23131208
p1373
aV23039714
p1374
aV22713172
p1375
aV23190300
p1376
aV16553314
p1377
aV22640696
p1378
aV21083105
p1379
aV23023260
p1380
aV22426639
p1381
aV22252984
p1382
aV22722194
p1383
aV17373823
p1384
aV21164525
p1385
aV22348240
p1386
aV22203775
p1387
aV23377891
p1388
aV23140241
p1389
aV19049901
p1390
aV17968707
p1391
aV21164512
p1392
aV22305969
p1393
aV16341061
p1394
aV21414992
p1395
aV23161693
p1396
aV23092136
p1397
aV20393581
p1398
aV17222009
p1399
aV17173669
p1400
aV19381358
p1401
aV22695696
p1402
aV19200003
p1403
aV15919996
p1404
aV19337271
p1405
aV21329461
p1406
aV20677029
p1407
aV17971784
p1408
aV23360254
p1409
aV23216785
p1410
aV21757467
p1411
aV23072438
p1412
aV20550936
p1413
aV17032683
p1414
aV19935646
p1415
aV22834945
p1416
aV21890679
p1417
aV21704158
p1418
aV21311067
p1419
aV22020553
p1420
aV23046263
p1421
aV22320313
p1422
aV20469857
p1423
aV22405899
p1424
aV17439666
p1425
aV22946681
p1426
aV17045684
p1427
aV21325300
p1428
aV18202690
p1429
aV16319894
p1430
aV21962087
p1431
aV23323971
p1432
aV22971835
p1433
aV16199500
p1434
aV21456517
p1435
aV21142260
p1436
aV22782856
p1437
aV20236959
p1438
aV21059217
p1439
aV22144361
p1440
aV23300405
p1441
aV15953932
p1442
aV22962330
p1443
aV22429650
p1444
aV20339444
p1445
aV21560018
p1446
aV22142339
p1447
aV22832350
p1448
aV23393265
p1449
aV20520604
p1450
aV15286737
p1451
aV2680602
p1452
aV18331064
p1453
aV22023736
p1454
aV22406961
p1455
aV20935044
p1456
aV22119097
p1457
aV23220386
p1458
aV22366554
p1459
aV22823888
p1460
aV21949492
p1461
aV20608743
p1462
aV22378269
p1463
aV23109552
p1464
aV23118012
p1465
aV23046267
p1466
aV22281772
p1467
aV21461040
p1468
aV19636438
p1469
aV21566122
p1470
aV22844400
p1471
aV9744112
p1472
aV22468890
p1473
aV22179068
p1474
aV22661132
p1475
aV18843342
p1476
aV20835998
p1477
aV20046865
p1478
aV22833710
p1479
aV21949491
p1480
aV23103705
p1481
aV22228769
p1482
aV20803507
p1483
aV22194963
p1484
aV21466230
p1485
aV19170513
p1486
aV23258412
p1487
aV22076706
p1488
aV16236429
p1489
aV21495048
p1490
aV17395091
p1491
aV21867520
p1492
aV21049934
p1493
aV14679360
p1494
aV23109553
p1495
aV21886157
p1496
aV18356193
p1497
aV22576654
p1498
aV21123256
p1499
aV17556793
p1500
aV23157406
p1501
aV22246674
p1502
aV19562197
p1503
aV23142542
p1504
aV22269136
p1505
aV23102864
p1506
aV19133145
p1507
aV10910359
p1508
aV21538458
p1509
aV23393554
p1510
aV20531467
p1511
aV14696046
p1512
aV16680201
p1513
aV22351176
p1514
aV16847258
p1515
aV22607863
p1516
aV20936122
p1517
aV22351177
p1518
aV22661919
p1519
aV22683805
p1520
aV21558479
p1521
aV21664817
p1522
aV22166170
p1523
aV22284781
p1524
aV18936752
p1525
aV22450380
p1526
aV17199125
p1527
aV22148170
p1528
aV21221096
p1529
aV22971357
p1530
aV20957472
p1531
aV22610447
p1532
aV20007013
p1533
aV22815171
p1534
aV21337642
p1535
aV23085877
p1536
aV23112813
p1537
aV19234110
p1538
aV18309312
p1539
aV21475195
p1540
aV22689914
p1541
aV17123434
p1542
aV23312283
p1543
aV21963522
p1544
aV23188714
p1545
aV12581712
p1546
aV20934866
p1547
aV21241816
p1548
aV19668871
p1549
aV21819238
p1550
aV23307777
p1551
aV22309680
p1552
aV17129827
p1553
aV19348698
p1554
aV15388866
p1555
aV23138306
p1556
aV21671558
p1557
aV20581821
p1558
aV15568024
p1559
aV22999913
p1560
aV22503618
p1561
aV18075678
p1562
aV20176062
p1563
aV11135551
p1564
aV17301733
p1565
aV22102985
p1566
aV19323472
p1567
aV22417173
p1568
aV21212881
p1569
aV23552054
p1570
aV21689470
p1571
aV20529914
p1572
aV22289213
p1573
aV22131085
p1574
aV23384594
p1575
aV19495910
p1576
aV15970265
p1577
aV20118361
p1578
aV22915023
p1579
aV23162084
p1580
aV22612383
p1581
aV22892193
p1582
aV21999653
p1583
aV22069723
p1584
aV20823323
p1585
aV22768229
p1586
aV22101153
p1587
aV14559783
p1588
aV22841915
p1589
aV15109811
p1590
aV23064226
p1591
aV22956899
p1592
aV22823282
p1593
aV19763339
p1594
aV22593721
p1595
aV22867903
p1596
aV22286016
p1597
aV22424434
p1598
aV21600757
p1599
aV18936753
p1600
aV20520606
p1601
aV18428092
p1602
aV23090085
p1603
aV20168317
p1604
aV23297175
p1605
aV18727146
p1606
aV19215296
p1607
aV20117850
p1608
aV23142545
p1609
aV23314354
p1610
aV22296988
p1611
aV17182837
p1612
aV19881490
p1613
aV22928018
p1614
aV9723817
p1615
aV22718433
p1616
aV22183149
p1617
aV20668676
p1618
aV23396507
p1619
aV23447050
p1620
aV22588484
p1621
aV20351247
p1622
aV23103988
p1623
aV23246232
p1624
aV10553282
p1625
aV23212105
p1626
aV17330071
p1627
aV15520792
p1628
aV22967080
p1629
aV23025763
p1630
aV20188855
p1631
aV20837882
p1632
aV22163331
p1633
aV16986257
p1634
aV22041788
p1635
aV23458856
p1636
aV22027554
p1637
aV26229523
p1638
aV19840866
p1639
aV22110018
p1640
aV22678283
p1641
aV22701716
p1642
aV22309310
p1643
aV23060735
p1644
aV22447740
p1645
aV22970429
p1646
aV23184849
p1647
aV18056069
p1648
aV23062430
p1649
aV23390245
p1650
aS'23849719'
p1651
aV19660986
p1652
aV21755356
p1653
aV17062565
p1654
aV22715155
p1655
aV20595611
p1656
aV18536691
p1657
aV21559344
p1658
aV21969677
p1659
aV20534544
p1660
aV21704063
p1661
aV19067749
p1662
aV15572364
p1663
aV18340442
p1664
aV19282977
p1665
aV10716907
p1666
aV22041191
p1667
aV21909251
p1668
aV18937252
p1669
aV15778709
p1670
aV22765044
p1671
aV18483615
p1672
aV21224223
p1673
aV20890966
p1674
aV22146999
p1675
aV21115436
p1676
aV18621757
p1677
aV14563875
p1678
aV21943889
p1679
aV18239081
p1680
aV22686345
p1681
aV11701654
p1682
aV15240442
p1683
aV20955552
p1684
aV20969759
p1685
aV20037589
p1686
aV20090895
p1687
aV17012394
p1688
aV20959820
p1689
aV20191329
p1690
aV20041200
p1691
aV17406294
p1692
aV15342562
p1693
aV22025222
p1694
aV21266494
p1695
aV17202167
p1696
aV19229310
p1697
aS'23704901'
p1698
aV19754970
p1699
aV20080587
p1700
aV20486930
p1701
aV20731870
p1702
aV20233082
p1703
aV19249205
p1704
aV19356237
p1705
aV21092312
p1706
aV21036868
p1707
aV21059682
p1708
aV21245845
p1709
aV11386933
p1710
aV12160095
p1711
aV12543140
p1712
aV12565943
p1713
aV12824330
p1714
aV11001586
p1715
aV14759262
p1716
aV15027865
p1717
aV15027866
p1718
aV6606682
p1719
aV2672462
p1720
aV9150411
p1721
aV9862811
p1722
aV10325427
p1723
aV10480925
p1724
aV10493868
p1725
aV13717628
p1726
aV14325885
p1727
aV15550942
p1728
aV15980437
p1729
aV16381955
p1730
aV16328855
p1731
aV17031533
p1732
aV17034125
p1733
aV16704343
p1734
aV21382593
p1735
aV21515412
p1736
aV21713281
p1737
aV21948594
p1738
aV22161221
p1739
aV22275868
p1740
aV22355343
p1741
aV22125297
p1742
aV22432037
p1743
aV22662210
p1744
aV22540944
p1745
aV23028286
p1746
aV17159923
p1747
aV17348836
p1748
aV18048412
p1749
aV18056714
p1750
aV18426954
p1751
aV18600222
p1752
aV18681788
p1753
aV18974178
p1754
aV19214212
p1755
aV19498078
p1756
aS'23680586'
p1757
aS'23349810'
p1758
aV9414323
p1759
aV11175725
p1760
aV12073338
p1761
aV17727659
p1762
aV17684710
p1763
aV17001629
p1764
aV11341306
p1765
aV17609945
p1766
aV15372215
p1767
aV17105650
p1768
aV11246024
p1769
aV16646809
p1770
aV11956751
p1771
aV1523884
p1772
aV18191255
p1773
aV1544568
p1774
aV18344340
p1775
aV16472304
p1776
aV10514248
p1777
aV18638364
p1778
aV16893960
p1779
aV16457616
p1780
aV18555717
p1781
aV17972330
p1782
aV10862876
p1783
aV19200357
p1784
aS'23110428'
p1785
aV21067998
p1786
aV20932952
p1787
aV21443633
p1788
aV20107021
p1789
aV19646250
p1790
aV15630516
p1791
aV22127870
p1792
aV18050944
p1793
aV14996223
p1794
aV17350212
p1795
aV17681626
p1796
aV15038961
p1797
aV17442674
p1798
aV20404489
p1799
aV21749710
p1800
aV21746901
p1801
aV12062419
p1802
aV22325894
p1803
aV20709142
p1804
aV22209109
p1805
aV22241476
p1806
aV17932292
p1807
aV20385544
p1808
aV17115212
p1809
aV21963247
p1810
aV21199890
p1811
aV18480101
p1812
aV19920124
p1813
aV15541746
p1814
aV20225336
p1815
aV20663661
p1816
aV15231801
p1817
aV20492649
p1818
aV21498682
p1819
aV20681642
p1820
aV12193620
p1821
aV18299247
p1822
aV21637328
p1823
aV20950480
p1824
aV11158573
p1825
aV20852019
p1826
aV22043295
p1827
aV14695922
p1828
aV21266071
p1829
aV20421458
p1830
aV22257857
p1831
aV21945931
p1832
aV16081474
p1833
aV20609580
p1834
aV22217731
p1835
aV21401935
p1836
aV12405558
p1837
aV19584015
p1838
aV18539450
p1839
aV22037181
p1840
aV14502990
p1841
aV20655798
p1842
aV15325581
p1843
aV14725863
p1844
aV20084111
p1845
aV21556065
p1846
aV10852933
p1847
aV22325862
p1848
aV21620688
p1849
aV22137751
p1850
aV16492482
p1851
aV17332020
p1852
aV20537123
p1853
aV21915640
p1854
aV20015972
p1855
aV21351878
p1856
aV9746350
p1857
aV20587772
p1858
aV18221809
p1859
aV20615387
p1860
aV15140833
p1861
aV20615690
p1862
aV12137537
p1863
aV20031983
p1864
aV11818558
p1865
aV19737799
p1866
aV19880382
p1867
aV21549959
p1868
aV12013278
p1869
aV19063932
p1870
aV12946407
p1871
aV20399634
p1872
aV10508846
p1873
aV21747749
p1874
aV20705610
p1875
aV20616280
p1876
aV15215578
p1877
aV10620354
p1878
aV21928291
p1879
aV19793600
p1880
aV19920128
p1881
aV22123257
p1882
aV19447673
p1883
aV19575586
p1884
aS'22847261'
p1885
aV11934293
p1886
aV11435407
p1887
aV12679064
p1888
aV12714058
p1889
aV15189570
p1890
aV15287973
p1891
aV3281659
p1892
aV1897995
p1893
aV8494895
p1894
aV8508809
p1895
aV10427017
p1896
aV15911379
p1897
aV16095938
p1898
aV16738554
p1899
aV17623104
p1900
aV18952873
p1901
aV19490098
p1902
aV20029369
p1903
aV20693992
p1904
aV10601204
p1905
aV12000313
p1906
aS'24957377'
p1907
aV16000019
p1908
aV20335275
p1909
aV13351639
p1910
aV19464354
p1911
aV18177721
p1912
aV20352489
p1913
aV19416711
p1914
aV22262476
p1915
aV22198197
p1916
aV14594721
p1917
aV9265774
p1918
aV21804546
p1919
aV21815690
p1920
aV21423717
p1921
aV20369014
p1922
aV19460998
p1923
aV15860371
p1924
aV21847114
p1925
aV18473803
p1926
aV18041668
p1927
aS'22207618'
p1928
aS'22185482'
p1929
aV11685177
p1930
aV18218092
p1931
aV18392985
p1932
aV19141168
p1933
aV19218833
p1934
aV19401675
p1935
aV19445715
p1936
aV19597503
p1937
aV8761851
p1938
aV15710883
p1939
aV15908506
p1940
aV16631753
p1941
aV16951216
p1942
aV17652176
p1943
aV18295713
p1944
aV10751092
p1945
aV21627340
p1946
aS'22135291'
p1947
aV21051339
p1948
aV20829833
p1949
aV21082427
p1950
aV22102589
p1951
aV15608227
p1952
aV15534700
p1953
aV16426051
p1954
aV14681451
p1955
aV18776214
p1956
aV20298521
p1957
aV21097882
p1958
aV7022156
p1959
aV16986322
p1960
aV19854951
p1961
aV17822389
p1962
aV17082206
p1963
aS'22119273'
p1964
aS'22008641'
p1965
aV15084509
p1966
aV19396373
p1967
aV15368893
p1968
aV7437420
p1969
aV16040987
p1970
aV15808744
p1971
aV7960099
p1972
aV9278464
p1973
aV13459440
p1974
aV9022698
p1975
aV21178073
p1976
aV18488445
p1977
aV18685186
p1978
aV10747141
p1979
aV16558021
p1980
aV10547837
p1981
aV10074354
p1982
aV16506545
p1983
aV11807062
p1984
aV18613555
p1985
aV8230210
p1986
aV17579770
p1987
aV20949072
p1988
aV14859080
p1989
aV10570195
p1990
aV11313139
p1991
aV17130148
p1992
aV4351505
p1993
aV19118360
p1994
aV15683257
p1995
aV21079673
p1996
aV17142235
p1997
aV7265238
p1998
aV17580095
p1999
aV18158299
p2000
aV18940858
p2001
aV19357639
p2002
aV19357641
p2003
aV19284618
p2004
aV10567213
p2005
aV10722730
p2006
aV11082198
p2007
aV11356164
p2008
aV11704268
p2009
aV11752250
p2010
aV12475972
p2011
aV12633501
p2012
aV14718379
p2013
aV15075390
p2014
aV14718373
p2015
aV15262797
p2016
aV15479782
p2017
aV4933108
p2018
aV6819292
p2019
aV3534538
p2020
aV3356710
p2021
aV2768261
p2022
aV2010546
p2023
aV1679347
p2024
aV19425150
p2025
aV19756045
p2026
aV20001958
p2027
aV19935659
p2028
aV20118918
p2029
aV20661448
p2030
aV20727158
p2031
aV1946389
p2032
aV8993539
p2033
aV9693963
p2034
aV9852127
p2035
aV15637255
p2036
aV15531608
p2037
aV15903248
p2038
aV16237010
p2039
aV16507154
p2040
aV16319065
p2041
aV16571130
p2042
aV16820779
p2043
aS'21943909'
p2044
aV12673766
p2045
aV12765837
p2046
aV15897462
p2047
aV17150997
p2048
aV18574146
p2049
aV18819722
p2050
aV19490860
p2051
aV19588116
p2052
aV19577473
p2053
aV19690565
p2054
aV19855104
p2055
aV20124092
p2056
aV20486139
p2057
aV20543878
p2058
aV20540108
p2059
aV12415116
p2060
aV12051985
p2061
aV21172059
p2062
aV16381883
p2063
aV18767191
p2064
aV9328646
p2065
aV18727018
p2066
aV17274071
p2067
aV21358636
p2068
aV16535628
p2069
aV21370473
p2070
aV20307315
p2071
aV18767192
p2072
aV19057639
p2073
aV20622067
p2074
aV18849451
p2075
aV1722664
p2076
aV17932063
p2077
aV7576768
p2078
aV19055772
p2079
aV15543610
p2080
aV11679321
p2081
aV3540574
p2082
aV20665645
p2083
aV16346746
p2084
aV18172501
p2085
aV7814334
p2086
aV18758767
p2087
aV18061440
p2088
aV20033401
p2089
aV16346643
p2090
aV11537060
p2091
aV8977114
p2092
aV17291820
p2093
aV10760244
p2094
aV15522866
p2095
aV12671093
p2096
aV12721848
p2097
aV12219076
p2098
aV12401216
p2099
aV18476868
p2100
aV10944149
p2101
aV8220443
p2102
aV19291418
p2103
aV20221863
p2104
aV15701786
p2105
aV16663206
p2106
aV11337403
p2107
aV21404266
p2108
aV1833630
p2109
aV9159949
p2110
aV19329703
p2111
aV16267098
p2112
aV19431729
p2113
aV15653810
p2114
aV16569602
p2115
aV16306980
p2116
aV17660748
p2117
aV19056727
p2118
aV10725536
p2119
aV16667440
p2120
aV11454754
p2121
aV11498005
p2122
aV15123830
p2123
aS'21757732'
p2124
aV11408557
p2125
aV20921221
p2126
aV12369090
p2127
aV12472777
p2128
aV12605306
p2129
aV12660303
p2130
aV12920404
p2131
aV12960058
p2132
aV14871882
p2133
aV15054140
p2134
aV15369770
p2135
aV2847554
p2136
aV2236985
p2137
aV8067379
p2138
aV9045672
p2139
aV9841492
p2140
aV16046905
p2141
aV16354673
p2142
aV17094945
p2143
aV17065202
p2144
aV17264878
p2145
aV17653123
p2146
aV17553798
p2147
aV17976081
p2148
aV17674156
p2149
aV21325265
p2150
aV21476605
p2151
aV18174163
p2152
aV18216144
p2153
aV18270321
p2154
aV18381565
p2155
aV18668434
p2156
aV18695391
p2157
aV18508962
p2158
aV19690570
p2159
aV19515966
p2160
aV19737926
p2161
aV12011098
p2162
aS'21501263'
p2163
aS'21474551'
p2164
aV17237053
p2165
aV17646315
p2166
aV17962297
p2167
aV18262675
p2168
aV18428772
p2169
aV18362917
p2170
aV18948289
p2171
aV19997069
p2172
aV19820115
p2173
aV18983710
p2174
aV20134070
p2175
aV20070885
p2176
aV20186266
p2177
aV20482636
p2178
aV20482655
p2179
aV11433356
p2180
aV11752253
p2181
aV11752254
p2182
aV14602924
p2183
aV5449325
p2184
aV8594595
p2185
aV15723693
p2186
aV16556315
p2187
aS'21433289'
p2188
aS'21082444'
p2189
aV20686576
p2190
aV15829537
p2191
aV15576366
p2192
aV15105138
p2193
aV10477179
p2194
aV18541913
p2195
aV15083156
p2196
aV17824955
p2197
aV20087340
p2198
aV9202005
p2199
aV12076625
p2200
aV12004069
p2201
aV18805734
p2202
aV15275357
p2203
aV12368866
p2204
aV12368870
p2205
aV19229315
p2206
aV19355893
p2207
aV14638682
p2208
aV18083776
p2209
aV15590623
p2210
aV15580779
p2211
aV16597467
p2212
aV2630804
p2213
aV20124342
p2214
aV19747879
p2215
aV9343345
p2216
aV6375681
p2217
aV19575563
p2218
aV8265664
p2219
aV9770490
p2220
aV20136149
p2221
aV781840
p2222
aV11294796
p2223
aV19666612
p2224
aV20037583
p2225
aV19716475
p2226
aV16780611
p2227
aV20112162
p2228
aV16251308
p2229
aV10645538
p2230
aV19666057
p2231
aV2141094
p2232
aV19712041
p2233
aV15980361
p2234
aV17030505
p2235
aV18619439
p2236
aV12893887
p2237
aV11706018
p2238
aV11349074
p2239
aV16493140
p2240
aV8366890
p2241
aV17284593
p2242
aV17568945
p2243
aV9268315
p2244
aV16890916
p2245
aV20008186
p2246
aV18689621
p2247
aV19040641
p2248
aV17406255
p2249
aV18215139
p2250
aV12140549
p2251
aV15774027
p2252
aV20466925
p2253
aV11175846
p2254
aV14630934
p2255
aV16774588
p2256
aV26530861
p2257
aV18026122
p2258
aV19575561
p2259
aV18843360
p2260
aV383936
p2261
aV19111634
p2262
aV18455248
p2263
aV2141093
p2264
aV15913804
p2265
aV18680669
p2266
aV19053772
p2267
aV12006566
p2268
aV18986839
p2269
aV17827348
p2270
aV20159614
p2271
aV2630803
p2272
aV18389080
p2273
aV18805693
p2274
aV10952267
p2275
aV2024960
p2276
aV18957442
p2277
aV15612915
p2278
aV18974882
p2279
aV18417228
p2280
aV2001227
p2281
aV16839657
p2282
aV12929205
p2283
aV9655396
p2284
aV11937421
p2285
aV16760253
p2286
aS'20807838'
p2287
aV5420325
p2288
aV15375149
p2289
aV1944532
p2290
aV1731067
p2291
aV8346441
p2292
aV7584402
p2293
aV10487864
p2294
aV15568985
p2295
aV15644202
p2296
aV15653829
p2297
aV15701760
p2298
aV15760844
p2299
aV16207904
p2300
aV16105899
p2301
aV16301543
p2302
aV16477324
p2303
aV16840530
p2304
aV16873524
p2305
aV17438293
p2306
aV17488841
p2307
aV17646310
p2308
aV17943116
p2309
aV17845071
p2310
aV17993682
p2311
aV18158297
p2312
aV18585360
p2313
aV18701645
p2314
aV19056824
p2315
aV19076237
p2316
aV19082769
p2317
aV19415112
p2318
aV19482960
p2319
aV19507285
p2320
aV19680427
p2321
aV19710709
p2322
aV19731374
p2323
aV20180275
p2324
aV20203603
p2325
aV20102603
p2326
aV10637320
p2327
aV10734204
p2328
aV11262934
p2329
aV11465053
p2330
aV11473011
p2331
aV11997340
p2332
aV12015879
p2333
aV12368244
p2334
aV12627170
p2335
aV12748633
p2336
aV12824370
p2337
aV12775844
p2338
aV14572541
p2339
aV14627811
p2340
aV14668220
p2341
aV14672977
p2342
aV14992514
p2343
aV14992516
p2344
aV15173116
p2345
aV15231752
p2346
aV2193692
p2347
aV17449819
p2348
aV17028780
p2349
aV16893953
p2350
aV17129822
p2351
aV15860428
p2352
aV15888675
p2353
aV17547772
p2354
aV19095898
p2355
aV17922569
p2356
aV16155945
p2357
aV17115182
p2358
aV19095900
p2359
aV17698493
p2360
aV15834800
p2361
aV18252737
p2362
aV18062772
p2363
aV11125061
p2364
aV15489308
p2365
aV11277707
p2366
aV11522199
p2367
aV15542455
p2368
aV19010556
p2369
aV18006545
p2370
aS'20488753'
p2371
aS'20444302'
p2372
aS'20421197'
p2373
aV19281817
p2374
aV18635573
p2375
aV19874611
p2376
aV19808881
p2377
aV19874610
p2378
aV12202830
p2379
aV12967966
p2380
aV14534167
p2381
aV14559781
p2382
aV15285901
p2383
aV15572476
p2384
aV16195792
p2385
aV16337962
p2386
aV16796559
p2387
aV18492807
p2388
aV18631021
p2389
aV18436574
p2390
aV19398450
p2391
aS'20126531'
p2392
aV18676416
p2393
aV11796225
p2394
aV12826406
p2395
aV14505407
p2396
aV15372033
p2397
aV15600352
p2398
aV16381842
p2399
aV17148474
p2400
aV17148475
p2401
aV18533713
p2402
aV18533714
p2403
aV11752349
p2404
aV11075367
p2405
aV11242119
p2406
aV12538263
p2407
aV14681372
p2408
aV14990451
p2409
aV15654321
p2410
aV15743968
p2411
aV16824019
p2412
aV17658902
p2413
aV18846087
p2414
aV15102470
p2415
aS'19190405'
p2416
aS'19008181'
p2417
aS'18937253'
p2418
aV8849441
p2419
aV17016516
p2420
aV18269749
p2421
aV10929718
p2422
aV18045787
p2423
aV14618563
p2424
aV15470454
p2425
aV15608238
p2426
aV15889163
p2427
aV11474067
p2428
aV18157128
p2429
aV18629186
p2430
aV17098933
p2431
aV18549975
p2432
aV16553966
p2433
aV18460187
p2434
aV15960801
p2435
aV17170002
p2436
aV15860374
p2437
aV17142221
p2438
aV8763491
p2439
aV18549976
p2440
aV14973188
p2441
aV16317075
p2442
aV16708762
p2443
aV16788595
p2444
aV15640230
p2445
aV8241405
p2446
aV12867463
p2447
aV16347502
p2448
aV16946257
p2449
aV1785927
p2450
aV9278503
p2451
aV16822574
p2452
aV2719476
p2453
aV16261177
p2454
aV12070452
p2455
aV10191392
p2456
aV11466286
p2457
aV18595046
p2458
aV10483106
p2459
aV11473602
p2460
aV11479309
p2461
aV10581430
p2462
aV11752249
p2463
aV8550525
p2464
aV24039
p2465
aV7961393
p2466
aV18551704
p2467
aV15755956
p2468
aV11601609
p2469
aV8743688
p2470
aV11289788
p2471
aV238949
p2472
aV12732555
p2473
aV16169729
p2474
aV11781809
p2475
aV14665680
p2476
aV12730377
p2477
aV15659246
p2478
aV4568761
p2479
aV16346149
p2480
aV11418146
p2481
aV8537297
p2482
aV16381888
p2483
aV15247105
p2484
aV9384377
p2485
aV12215812
p2486
aV8706750
p2487
aV3119567
p2488
aV8113186
p2489
aV8043597
p2490
aV6124533
p2491
aV15752426
p2492
aV16348821
p2493
aV18587795
p2494
aV17603872
p2495
aV12449427
p2496
aV11889105
p2497
aV16895435
p2498
aV11125067
p2499
aV7797557
p2500
aV16738551
p2501
aV16349164
p2502
aV15059661
p2503
aV16299075
p2504
aV15962336
p2505
aV18553576
p2506
aV6696415
p2507
aV12069492
p2508
aV9473028
p2509
aV12200425
p2510
aV11222605
p2511
aV8431
p2512
aV1548233
p2513
aV15882622
p2514
aV12057953
p2515
aV17408794
p2516
aV9045833
p2517
aV11607175
p2518
aV15028684
p2519
aV17137317
p2520
aV16199581
p2521
aV6999324
p2522
aV15178193
p2523
aV16154652
p2524
aV15028679
p2525
aV14708117
p2526
aV9244562
p2527
aV10529352
p2528
aV10937935
p2529
aV16881711
p2530
aV14708125
p2531
aV18553724
p2532
aV10514263
p2533
aV7576769
p2534
aV17337545
p2535
aV132964
p2536
aV18553808
p2537
aV18553577
p2538
aV15626710
p2539
aV7961496
p2540
aS'18682254'
p2541
aV15129285
p2542
aV18312613
p2543
aV15671116
p2544
aV12080101
p2545
aV14708128
p2546
aV16339357
p2547
aV16461711
p2548
aV15864286
p2549
aV17698812
p2550
aV16978855
p2551
aV16572170
p2552
aV17873044
p2553
aV17632026
p2554
aV10099424
p2555
aV15448692
p2556
aV17068089
p2557
aV12202792
p2558
aV11745171
p2559
aV15975601
p2560
aV18592570
p2561
aV16782788
p2562
aV18225949
p2563
aV17930409
p2564
aV12761067
p2565
aV18277384
p2566
aV17208985
p2567
aV18609648
p2568
aV17614694
p2569
aV17463022
p2570
aV16927085
p2571
aV12453446
p2572
aV16357206
p2573
aV16519800
p2574
aV11587566
p2575
aV16204108
p2576
aV15821729
p2577
aV16524470
p2578
aV17881571
p2579
aV12399584
p2580
aV16362071
p2581
aV17981891
p2582
aV16461408
p2583
aV12690188
p2584
aV18642243
p2585
aV16299083
p2586
aV16397293
p2587
aV18215292
p2588
aS'18468557'
p2589
aV19669466
p2590
aV12871098
p2591
aV16381876
p2592
aV15037506
p2593
aV16381922
p2594
aV12424129
p2595
aV17054419
p2596
aV12874056
p2597
aV15608251
p2598
aV14681412
p2599
aV17054416
p2600
aV14708879
p2601
aV15331224
p2602
aV16381840
p2603
aV16082367
p2604
aV15722563
p2605
aV15608210
p2606
aV16496022
p2607
aV14751266
p2608
aV2200929
p2609
aV15549269
p2610
aV10629182
p2611
aV8991852
p2612
aV15625321
p2613
aV17086184
p2614
aV15509886
p2615
aV12776215
p2616
aV18623053
p2617
aV860983
p2618
aV365223
p2619
aV11807064
p2620
aV166569
p2621
aV8432721
p2622
aV16042606
p2623
aV4378482
p2624
aV15848284
p2625
aV8491720
p2626
aV15451507
p2627
aV11481338
p2628
aV11842435
p2629
aV11983710
p2630
aV12704152
p2631
aV15193309
p2632
aV8805245
p2633
aV10224113
p2634
aV16381880
p2635
aV11329290
p2636
aS'17388807'
p2637
aS'17243146'
p2638
aS'17132165'
p2639
aV26136848
p2640
aV10592281
p2641
aV10420081
p2642
aV12590111
p2643
aV1939111
p2644
aV8808741
p2645
aV9287494
p2646
aS'12801875'
p2647
aS''
p2648
a.