(dp0
S''
p1
(lp2
sS'20126531'
p3
(lp4
V10805808
p5
aV18676416
p6
aV11796225
p7
aV12826406
p8
aV14505407
p9
aV15372033
p10
aV15600352
p11
aV16381842
p12
aV17148474
p13
aV17148475
p14
aV17882155
p15
aV17965431
p16
aV18533713
p17
aV18533714
p18
aV11752349
p19
asS'27014700'
p20
(lp21
V25575024
p22
aV25315283
p23
aV19154080
p24
aV26040289
p25
aV21811229
p26
aV21556754
p27
aV12202358
p28
aV25662277
p29
aV18958862
p30
aV24413396
p31
aV23455439
p32
aV24723921
p33
aV18846089
p34
aV20461071
p35
aV22419742
p36
aV24957647
p37
aV16880395
p38
aV17385748
p39
aV23708492
p40
aV19575587
p41
aV26102287
p42
aV22947602
p43
aV23678342
p44
aV24695071
p45
aV22640594
p46
aV12761066
p47
aV25564863
p48
aV26425993
p49
aV25988163
p50
asS'22008641'
p51
(lp52
sS'20823846'
p53
(lp54
V20686576
p55
aV11781362
p56
aV15829537
p57
aV15576366
p58
aV10722510
p59
aV16571130
p60
aV15105138
p61
aV16381960
p62
aV10477179
p63
aV18541913
p64
aV19396373
p65
aV15083156
p66
aV17824955
p67
aV20087340
p68
aV9202005
p69
aV12076625
p70
aV19888215
p71
aV12952533
p72
aV19116616
p73
aV12004069
p74
aV18805734
p75
aV15275357
p76
aV12368866
p77
aV3886898
p78
aV15642094
p79
aV12368870
p80
aV19229315
p81
aV19355893
p82
aV14638682
p83
aV18083776
p84
aV15590623
p85
aV15580779
p86
aV16597467
p87
aV2630804
p88
aV19068099
p89
aV19218089
p90
aV20124342
p91
aV19747879
p92
aV9343345
p93
aV6375681
p94
aV19575563
p95
aV19714220
p96
aV8265664
p97
aV9770490
p98
aV20136149
p99
aV781840
p100
aV11294796
p101
aV19666612
p102
aV20037583
p103
aV19716475
p104
aV12415116
p105
aV16780611
p106
aV20112162
p107
aV17267599
p108
aV15897462
p109
aV17593909
p110
aV16251308
p111
aV10645538
p112
aV18364711
p113
aV19666057
p114
aV2141094
p115
aV14642354
p116
aV19728741
p117
aV19712041
p118
aV15980361
p119
aV17030505
p120
aV18619439
p121
aV12893887
p122
aV12368864
p123
aV19555510
p124
aV18077471
p125
aV16161998
p126
aV11706018
p127
aV11349074
p128
aV16493140
p129
aV11814579
p130
aV8366890
p131
aV17284593
p132
aV17568945
p133
aV9268315
p134
aV16890916
p135
aV20008186
p136
aV18689621
p137
aV19040641
p138
aV17406255
p139
aV18215139
p140
aV18711341
p141
aV12140549
p142
aV15774027
p143
aV20466925
p144
aV11175846
p145
aV18588708
p146
aV14630934
p147
aV16774588
p148
aV26530861
p149
aV17060533
p150
aV18026122
p151
aV19575561
p152
aV18843360
p153
aV383936
p154
aV19111634
p155
aV17406635
p156
aV17625511
p157
aV18455248
p158
aV2141093
p159
aV15913804
p160
aV18680669
p161
aV19053772
p162
aV12006566
p163
aV19064257
p164
aV18986839
p165
aV17827348
p166
aV20159614
p167
aV20212490
p168
aV2630803
p169
aV18389080
p170
aV18805693
p171
aV10952267
p172
aV8304987
p173
aV19640844
p174
aV2024960
p175
aV15078855
p176
aV15494745
p177
aV16707276
p178
aV18957442
p179
aV15612915
p180
aV18974882
p181
aV19843607
p182
aV18417228
p183
aV15197165
p184
aV20057383
p185
aV2001227
p186
aV16839657
p187
aV12929205
p188
aV9655396
p189
aV11937421
p190
aV16760253
p191
asS'17132165'
p192
(lp193
V16381885
p194
aV26136848
p195
aV10592281
p196
aV10592173
p197
aV10420081
p198
aV12590111
p199
aV14757824
p200
aV1939111
p201
aV17932057
p202
aV8808741
p203
aV14681450
p204
aV11752250
p205
aV9287494
p206
aV12824418
p207
aV14681452
p208
asS'18937253'
p209
(lp210
sS'24222422'
p211
(lp212
sS'26421278'
p213
(lp214
V22720753
p215
aV24031676
p216
aV24999350
p217
aV10592173
p218
aV22699610
p219
aV15590779
p220
aV23837656
p221
aV17183312
p222
aV14597658
p223
aV22411464
p224
aV16188921
p225
aV7535888
p226
aV9818143
p227
aV23858463
p228
aV22589385
p229
aV15790844
p230
aV22184244
p231
aV18803844
p232
aV23587224
p233
aV22424233
p234
aV9381173
p235
aV22699609
p236
asS'25578304'
p237
(lp238
V16997589
p239
aV11708855
p240
aV22921355
p241
aV23541504
p242
aV19619667
p243
aV22817898
p244
aV17437026
p245
aV22857267
p246
aV23086844
p247
aV23420771
p248
aV25447783
p249
aV19888215
p250
aV24831709
p251
aV12952533
p252
aV18772282
p253
aV21881889
p254
aV17202168
p255
aV7986045
p256
aV21889585
p257
aV23394962
p258
aV18059444
p259
aV10356246
p260
aV20876091
p261
aV16617034
p262
aV20134058
p263
aV21846360
p264
aV21029416
p265
aV17138585
p266
aV21172910
p267
aV22760628
p268
aV22596205
p269
aV19554356
p270
aV17463081
p271
aV18364712
p272
aV14571390
p273
aV20031969
p274
aV22138494
p275
aV1453698
p276
aV21139605
p277
aV22629571
p278
aV19714220
p279
aV23417801
p280
aV10935750
p281
aV24811519
p282
aV16246909
p283
aV20419153
p284
aV16199194
p285
aV12466293
p286
aV23041138
p287
aV17267599
p288
aV21081510
p289
aV17593909
p290
aV23210477
p291
aV14642354
p292
aV23234303
p293
aV20403172
p294
aV14595777
p295
aV18077471
p296
aV21059201
p297
aV20929806
p298
aV18483554
p299
aV18846089
p300
aV12611808
p301
aV15923052
p302
aV20558668
p303
aV14681450
p304
aV24762745
p305
aV22095399
p306
aV11030563
p307
aV22308420
p308
aV18711341
p309
aV11997342
p310
aV20802497
p311
aV22388689
p312
aV21988831
p313
aV21414417
p314
aV18588708
p315
aV23417797
p316
aV21824409
p317
aV21322280
p318
aV19646286
p319
aV25386654
p320
aV17406635
p321
aV18379780
p322
aV23935056
p323
aV23520143
p324
aV23555215
p325
aV25329157
p326
aV20064214
p327
aV20426874
p328
aV22076150
p329
aV16375763
p330
aV23026121
p331
aV20823844
p332
aV15962337
p333
aV1453697
p334
aV15520298
p335
aV22615553
p336
aV16289778
p337
aV22139506
p338
aV17088549
p339
aV25447643
p340
aV15885614
p341
aV4902792
p342
aV20151446
p343
aV18392986
p344
aV23647970
p345
aV14985762
p346
aV17408509
p347
aV20057383
p348
aV15454420
p349
aV19467724
p350
asS'18536691'
p351
(lp352
V15129285
p353
aV15262797
p354
aV16571130
p355
aV17437026
p356
aV18312613
p357
aV15671116
p358
aV12080101
p359
aV11175725
p360
aV14708128
p361
aV17408794
p362
aV14580578
p363
aV12952533
p364
aV9278503
p365
aV16339357
p366
aV16461711
p367
aV18059444
p368
aV15864286
p369
aV17698812
p370
aV16978855
p371
aV12700248
p372
aV16572170
p373
aV17463081
p374
aV17873044
p375
aV17632026
p376
aV10099424
p377
aV15448692
p378
aV17068089
p379
aV12202792
p380
aV11745171
p381
aV16311593
p382
aV15975601
p383
aV18592570
p384
aV16199194
p385
aV12415116
p386
aV16782788
p387
aV18225949
p388
aV10716907
p389
aV17930409
p390
aV12761067
p391
aV18277384
p392
aV15897462
p393
aV17593909
p394
aV17208985
p395
aV14642354
p396
aV16738554
p397
aV18609648
p398
aV17584497
p399
aV17614694
p400
aV17543097
p401
aV14595777
p402
aV12432395
p403
aV17463022
p404
aV16927085
p405
aV12611808
p406
aV12453446
p407
aV16357206
p408
aV16519800
p409
aV14718379
p410
aV11587566
p411
aV16204108
p412
aV15821729
p413
aV18026122
p414
aV16418748
p415
aV17123434
p416
aV17406635
p417
aV17625511
p418
aV16524470
p419
aV17881571
p420
aV15489308
p421
aV17012394
p422
aV16839195
p423
aV12399584
p424
aV17603872
p425
aV16895435
p426
aV15962337
p427
aV16362071
p428
aV16738551
p429
aV10805808
p430
aV15520298
p431
aV17981891
p432
aV16289778
p433
aV15494745
p434
aV16461408
p435
aV17088549
p436
aV16299075
p437
aV12690188
p438
aV18642243
p439
aV17652176
p440
aV15885614
p441
aV16299083
p442
aV16332763
p443
aV16397293
p444
aV14985762
p445
aV17408509
p446
aV8368835
p447
aV15189570
p448
aV16788595
p449
aV17172310
p450
aV18215292
p451
aV16507154
p452
asS'21501263'
p453
(lp454
sS'21846360'
p455
(lp456
V12051985
p457
aV10592173
p458
aV21172059
p459
aV16381883
p460
aV11175725
p461
aV19888215
p462
aV12679064
p463
aV14580578
p464
aV12952533
p465
aV19946878
p466
aV18261238
p467
aV19116616
p468
aV18767191
p469
aV7986045
p470
aV9328646
p471
aV18727018
p472
aV18536691
p473
aV17274071
p474
aV21358636
p475
aV16535628
p476
aV21370473
p477
aV20307315
p478
aV18767192
p479
aV17593909
p480
aV17965431
p481
aV19057639
p482
aV20622067
p483
aV18849451
p484
aV1722664
p485
aV17584497
p486
aV17573341
p487
aV16214803
p488
aV19555510
p489
aV17932063
p490
aV7576768
p491
aV11997342
p492
aV19055772
p493
aV15543610
p494
aV11679321
p495
aV3540574
p496
aV17406635
p497
aV20665645
p498
aV16346746
p499
aV18172501
p500
aV20426874
p501
aV7814334
p502
aV12000313
p503
aV15494745
p504
aV18758767
p505
aV18061440
p506
aV20057383
p507
aV9254694
p508
aV20033401
p509
aV16346643
p510
asS'24909362'
p511
(lp512
sS'26495291'
p513
(lp514
V21687783
p515
aV16381841
p516
aV18207462
p517
aV20823320
p518
aV15998455
p519
aV21253872
p520
aV19958496
p521
aV21918980
p522
aV15980585
p523
aV15886388
p524
aV21143796
p525
aV22369203
p526
aV17135193
p527
aV24030781
p528
aV24558441
p529
aV17181854
p530
aV11928487
p531
aV24302289
p532
aV20570001
p533
aV19468287
p534
aV19843607
p535
aV20057383
p536
asS'25343869'
p537
(lp538
sS'17882155'
p539
(lp540
V19669466
p541
aV11752349
p542
aV12952533
p543
aV17202168
p544
aV15642094
p545
aV15608238
p546
aV12871098
p547
aV16381876
p548
aV12538249
p549
aV15037506
p550
aV16381922
p551
aV16246909
p552
aV17148475
p553
aV12424129
p554
aV17267599
p555
aV17054419
p556
aV12874056
p557
aV17148474
p558
aV15608251
p559
aV14681412
p560
aV17054416
p561
aV14708879
p562
aV15331224
p563
aV16381840
p564
aV16082367
p565
aV16418748
p566
aV17129827
p567
aV11034217
p568
aV16381842
p569
aV15722563
p570
aV10802651
p571
aV15520792
p572
aV15197165
p573
asS'25562137'
p574
(lp575
V23892182
p576
aV24180668
p577
aV25098325
p578
aV24721214
p579
aV24632194
p580
aV25329157
p581
aV21136082
p582
aV21663798
p583
aV22095399
p584
aV22262672
p585
aV22253257
p586
aV22392983
p587
aV14992503
p588
aV12611808
p589
aV22760628
p590
aV16333295
p591
aV17584497
p592
aV18769432
p593
aV19946878
p594
aV20057383
p595
aV19955237
p596
aV20212490
p597
aV20305270
p598
aV20587024
p599
aV21846501
p600
aV22770837
p601
aV23632383
p602
aV24211263
p603
aV24148076
p604
aV24369854
p605
aV24811519
p606
asS'23680586'
p607
(lp608
sS'21082444'
p609
(lp610
sS'21433289'
p611
(lp612
sS'22135291'
p613
(lp614
V21051339
p615
aV20829833
p616
aV21082427
p617
aV22102589
p618
aV15608227
p619
aV15534700
p620
aV19116616
p621
aV10592255
p622
aV16426051
p623
aV14681451
p624
aV18776214
p625
aV19850718
p626
aV20298521
p627
aV21097882
p628
aV7022156
p629
aV21824409
p630
aV16986322
p631
aV19854951
p632
aV21483480
p633
aV21062828
p634
aV17822389
p635
aV19880382
p636
aV20712863
p637
aV17082206
p638
asS'17593909'
p639
(lp640
V15129285
p641
aV15608210
p642
aV16496022
p643
aV14751266
p644
aV2200929
p645
aV15549269
p646
aV15671116
p647
aV12080101
p648
aV11175725
p649
aV12952533
p650
aV15864286
p651
aV12700248
p652
aV15470454
p653
aV16572170
p654
aV10099424
p655
aV10629182
p656
aV8991852
p657
aV15625321
p658
aV17086184
p659
aV16311593
p660
aV15975601
p661
aV18592570
p662
aV15509886
p663
aV14642354
p664
aV16738554
p665
aV12776215
p666
aV18609648
p667
aV18623053
p668
aV12432395
p669
aV16357206
p670
aV860983
p671
aV365223
p672
aV11807064
p673
aV15821729
p674
aV21322280
p675
aV16418748
p676
aV166569
p677
aV17123434
p678
aV17406635
p679
aV8432721
p680
aV15489308
p681
aV17012394
p682
aV12006566
p683
aV16042606
p684
aV15962337
p685
aV16738551
p686
aV10805808
p687
aV4378482
p688
aV15494745
p689
aV17088549
p690
aV16381923
p691
aV16299075
p692
aV18642243
p693
aV15848284
p694
aV16397293
p695
aV14985762
p696
aV8491720
p697
aV16788595
p698
aV17172310
p699
aV15451507
p700
asS'15196499'
p701
(lp702
sS'26615025'
p703
(lp704
V14681350
p705
aV19059335
p706
aV23161672
p707
aV20417581
p708
aV22923347
p709
aV23974365
p710
aV11439165
p711
aV19939940
p712
aV22054827
p713
aV26528567
p714
aV17882155
p715
aV20664636
p716
aV16986321
p717
aV10592173
p718
aV3353225
p719
aV19955237
p720
aV10592235
p721
aV19755544
p722
aV18004212
p723
aV12952533
p724
aV21988831
p725
aV22909801
p726
aV18003653
p727
aV10592255
p728
aV19969536
p729
aV15642094
p730
aV23234303
p731
aV15608257
p732
aV18992329
p733
aV20011109
p734
aV23172809
p735
aV17132829
p736
aV16381932
p737
aV16052034
p738
aV21921927
p739
aV17130147
p740
aV23143106
p741
aV21415141
p742
aV23131418
p743
aV23142828
p744
aV20689021
p745
aV24811519
p746
aV22824957
p747
aV18039703
p748
aV15608167
p749
aV20436464
p750
aV17108355
p751
aV11858835
p752
aV17267599
p753
aV22233419
p754
aV17593909
p755
aV20019688
p756
aV24453953
p757
aV25315994
p758
aV22909788
p759
aV23455439
p760
aV18483554
p761
aV17274839
p762
aV17573341
p763
aV22955987
p764
aV19119993
p765
aV16683036
p766
aV23203881
p767
aV23203987
p768
aV18846089
p769
aV12611808
p770
aV23395674
p771
aV18261238
p772
aV1537278
p773
aV15908230
p774
aV21886097
p775
aV20802497
p776
aV12202761
p777
aV24267658
p778
aV12429065
p779
aV14506848
p780
aV20044452
p781
aV23357920
p782
aV24225315
p783
aV12566402
p784
aV7691404
p785
aV20712863
p786
aV22116062
p787
aV23180789
p788
aV20823849
p789
aV22644296
p790
aV23555215
p791
aV17555602
p792
aV10901708
p793
aV24777859
p794
aV19996319
p795
aV23738527
p796
aV16632598
p797
aV21281568
p798
aV16214803
p799
aV20823844
p800
aV24958259
p801
aV24441040
p802
aV21051348
p803
aV22615553
p804
aV20981092
p805
aV22184215
p806
aV23815980
p807
aV11752314
p808
aV18978789
p809
aV22749401
p810
aV20959003
p811
aV12930833
p812
aV24678285
p813
aV10802651
p814
aV16333295
p815
aV15499007
p816
aV22118946
p817
aV11752248
p818
aV15197165
p819
aV25415239
p820
aV20057383
p821
aV23218566
p822
aV16204195
p823
aV24214961
p824
aV10919763
p825
aV24419221
p826
aV24253303
p827
asS'21995956'
p828
(lp829
V15084509
p830
aV10592173
p831
aV19396373
p832
aV15368893
p833
aV7437420
p834
aV16040987
p835
aV19116616
p836
aV15808744
p837
aV7960099
p838
aV11586360
p839
aV9278464
p840
aV19714220
p841
aV20430689
p842
aV19850718
p843
aV13459440
p844
aV9022698
p845
aV17593909
p846
aV21178073
p847
aV18488445
p848
aV18685186
p849
aV10747141
p850
aV16558021
p851
aV10547837
p852
aV10074354
p853
aV16506545
p854
aV11807062
p855
aV18613555
p856
aV8230210
p857
aV17579770
p858
aV20949072
p859
aV14859080
p860
aV10570195
p861
aV11313139
p862
aV17130148
p863
aV4351505
p864
aV17406635
p865
aV19118360
p866
aV20959820
p867
aV15683257
p868
aV21062828
p869
aV21079673
p870
aV17142235
p871
aV7265238
p872
aV20057383
p873
aV21244678
p874
asS'25618865'
p875
(lp876
sS'22847261'
p877
(lp878
sS'18682254'
p879
(lp880
sS'26379769'
p881
(lp882
V16531492
p883
aV11127996
p884
aV8305875
p885
aV4199659
p886
aV17284470
p887
aV18374559
p888
aV22402228
p889
aV18444897
p890
aV16113218
p891
aV19489016
p892
aV18359752
p893
aV20177951
p894
aV21827869
p895
aV22308420
p896
aV23138691
p897
aV21602273
p898
aV22138629
p899
aV21691792
p900
aV19833224
p901
aV14907713
p902
aV22789478
p903
aV23945601
p904
aV11263574
p905
aV22614707
p906
asS'27274991'
p907
(lp908
V24653705
p909
aV24961398
p910
aV10592173
p911
aV25943547
p912
aV19696104
p913
aV20361498
p914
aV16380079
p915
aV18477636
p916
aV17967552
p917
aV18458946
p918
aV26592129
p919
aV15264259
p920
aV26546518
p921
aV23139423
p922
aV9852098
p923
aV25919614
p924
aV10958638
p925
aV25699068
p926
aV24513656
p927
aV17031956
p928
aV23280012
p929
aV18332432
p930
aV17142228
p931
aV9395539
p932
aV18500999
p933
aV24965873
p934
aV24132122
p935
aV24966243
p936
aV19131951
p937
aV23224588
p938
aV16372010
p939
aV26862882
p940
aV18599740
p941
aV17341818
p942
aV16381856
p943
aV25572393
p944
aV17367719
p945
aV19458158
p946
aV24170397
p947
aV23667601
p948
aV17135193
p949
aV22989154
p950
aV8804822
p951
aV24270786
p952
aV23542591
p953
aV24492599
p954
aV14530136
p955
aV23300594
p956
aV24225317
p957
aV12470740
p958
aV8744570
p959
aV18927357
p960
aV19239278
p961
aV23667655
p962
aV24413918
p963
aV16118665
p964
aV9504803
p965
aV25325701
p966
aV12698275
p967
aV25712422
p968
aV25971514
p969
aV19784673
p970
aV16944282
p971
aV12169656
p972
aV15071553
p973
aV20392818
p974
aV26117687
p975
aV17846036
p976
aV10995773
p977
aV9254694
p978
aV24214961
p979
aV24253303
p980
aV23925533
p981
aV26620784
p982
aV25210595
p983
asS'25345908'
p984
(lp985
sS'28767679'
p986
(lp987
V20426874
p988
aV18337718
p989
aV25257022
p990
aV14735121
p991
aV23800136
p992
aV17408485
p993
aV14597658
p994
aV24553913
p995
aV21747784
p996
aV14757824
p997
aV24721211
p998
aV19054115
p999
aV23455439
p1000
aV17237039
p1001
aV24691166
p1002
aV24742179
p1003
aV17584497
p1004
aV19479083
p1005
aV25575307
p1006
aV16772264
p1007
aV21124952
p1008
aV21592777
p1009
aV23357920
p1010
aV24225315
p1011
aV16418748
p1012
aV17526522
p1013
aV20150127
p1014
aV20212490
p1015
aV20637597
p1016
aV11034217
p1017
aV23624469
p1018
aV19287049
p1019
aV22422314
p1020
aV20649990
p1021
aV9847135
p1022
aV17172310
p1023
aV19729372
p1024
aV15096640
p1025
aV20836035
p1026
asS'24453953'
p1027
(lp1028
V23071359
p1029
aV21886097
p1030
aV20957118
p1031
aV20876091
p1032
aV23206561
p1033
aV8816738
p1034
aV21172910
p1035
aV22934050
p1036
aV17267599
p1037
aV21081510
p1038
aV14642354
p1039
aV23234303
p1040
aV23455439
p1041
aV20649990
p1042
aV18722501
p1043
aV22424225
p1044
aV18483554
p1045
aV18711341
p1046
aV19763335
p1047
aV21988831
p1048
aV15527509
p1049
aV21102456
p1050
aV20920235
p1051
aV22735334
p1052
aV20823844
p1053
aV21190580
p1054
aV22615553
p1055
aV10869432
p1056
aV21983269
p1057
aV15494745
p1058
aV23935467
p1059
aV23194418
p1060
aV8794873
p1061
aV20057383
p1062
aV6511349
p1063
aV21694718
p1064
asS'18846089'
p1065
(lp1066
V16381885
p1067
aV17882155
p1068
aV12740584
p1069
aV8849441
p1070
aV17016516
p1071
aV12952533
p1072
aV14735121
p1073
aV18269749
p1074
aV17202168
p1075
aV10929718
p1076
aV18045787
p1077
aV14618563
p1078
aV15470454
p1079
aV15608238
p1080
aV15889163
p1081
aV11474067
p1082
aV16478464
p1083
aV14597658
p1084
aV18157128
p1085
aV18629186
p1086
aV17098933
p1087
aV18549975
p1088
aV16553966
p1089
aV18460187
p1090
aV17267599
p1091
aV17965431
p1092
aV17032683
p1093
aV17439666
p1094
aV17045684
p1095
aV15960801
p1096
aV12611808
p1097
aV17170002
p1098
aV12140549
p1099
aV14506848
p1100
aV16986322
p1101
aV12566402
p1102
aV15860374
p1103
aV17142221
p1104
aV18252737
p1105
aV17129827
p1106
aV8763491
p1107
aV10436161
p1108
aV18549976
p1109
aV11522199
p1110
aV14973188
p1111
aV16381923
p1112
aV16317075
p1113
aV10802651
p1114
aV16333295
p1115
aV16708762
p1116
aV15197165
p1117
aV16204195
p1118
aV16788595
p1119
aV18056069
p1120
asS'21757732'
p1121
(lp1122
V11408557
p1123
aV20921221
p1124
aV12369090
p1125
aV12472777
p1126
aV12605306
p1127
aV12660303
p1128
aV12920404
p1129
aV12960058
p1130
aV14642354
p1131
aV14871882
p1132
aV15054140
p1133
aV15369770
p1134
aV15494745
p1135
aV2847554
p1136
aV2236985
p1137
aV8067379
p1138
aV9045672
p1139
aV9841492
p1140
aV15572364
p1141
aV16046905
p1142
aV16418748
p1143
aV16354673
p1144
aV17012394
p1145
aV17094945
p1146
aV17267599
p1147
aV17065202
p1148
aV17264878
p1149
aV17653123
p1150
aV17553798
p1151
aV17976081
p1152
aV17674156
p1153
aV21325265
p1154
aV21476605
p1155
aV18174163
p1156
aV18216144
p1157
aV18270321
p1158
aV18483554
p1159
aV18536691
p1160
aV18381565
p1161
aV18668434
p1162
aV18695391
p1163
aV18508962
p1164
aV19282964
p1165
aV19690570
p1166
aV19515966
p1167
aV19737926
p1168
aV19888215
p1169
aV12011098
p1170
asS'26576489'
p1171
(lp1172
sS'17243146'
p1173
(lp1174
sS'27736793'
p1175
(lp1176
V16452419
p1177
aV23335420
p1178
aV10592173
p1179
aV24662145
p1180
aV23443005
p1181
aV23420771
p1182
aV14580578
p1183
aV19946878
p1184
aV21988831
p1185
aV22955879
p1186
aV23028926
p1187
aV22800682
p1188
aV21402209
p1189
aV25427790
p1190
aV18645197
p1191
aV21992107
p1192
aV18487331
p1193
aV970945
p1194
aV24743257
p1195
aV20430689
p1196
aV19850718
p1197
aV15466049
p1198
aV25578304
p1199
aV17593909
p1200
aV25505460
p1201
aV3667534
p1202
aV25733616
p1203
aV11807560
p1204
aV17543097
p1205
aV22406173
p1206
aV26566239
p1207
aV22446067
p1208
aV17932057
p1209
aV12611808
p1210
aV24553424
p1211
aV24089473
p1212
aV21886097
p1213
aV20802497
p1214
aV1180967
p1215
aV2115763
p1216
aV22064852
p1217
aV18791018
p1218
aV12013276
p1219
aV19627604
p1220
aV17456186
p1221
aV20587024
p1222
aV17353934
p1223
aV18203827
p1224
aV20534465
p1225
aV25562137
p1226
aV16214803
p1227
aV22872868
p1228
aV16024727
p1229
aV18587410
p1230
aV23487778
p1231
aV21814274
p1232
aV15336407
p1233
aV22139506
p1234
aV21559116
p1235
aV15494745
p1236
aV21262829
p1237
aV8477725
p1238
aV24333786
p1239
aV18378657
p1240
aV20511510
p1241
aV20057383
p1242
aV17172310
p1243
aV25329157
p1244
asS'28732479'
p1245
(lp1246
V15519045
p1247
aV20086087
p1248
aV23762452
p1249
aV25373505
p1250
aV24992475
p1251
aV2332165
p1252
aV12360191
p1253
aV17005799
p1254
aV18981252
p1255
aV22208880
p1256
aV23712350
p1257
aV23874203
p1258
aV23271832
p1259
aV26518910
p1260
aV19001074
p1261
aV10939248
p1262
aV11586360
p1263
aV27367830
p1264
aV12885266
p1265
aV2674131
p1266
aV11432781
p1267
aV18990185
p1268
aV3098730
p1269
aV4373439
p1270
aV12142430
p1271
aV25187626
p1272
aV16648134
p1273
aV21862391
p1274
aV7836281
p1275
aV16870762
p1276
aV24438235
p1277
aV25636620
p1278
aV23006747
p1279
aV16291690
p1280
aV10807389
p1281
aV25453232
p1282
aV4364328
p1283
aV28165493
p1284
aV20065026
p1285
aV11292689
p1286
aV9023360
p1287
aV27345215
p1288
aV2852135
p1289
aV18710863
p1290
aV21995956
p1291
aV17768254
p1292
aV22313799
p1293
aV15342600
p1294
aV17284612
p1295
aV1889045
p1296
aV8993858
p1297
aV16188402
p1298
aV26775926
p1299
aV24778639
p1300
aV19052323
p1301
aV27284850
p1302
aV21724998
p1303
aV25139902
p1304
aV12000771
p1305
aV23298813
p1306
aV20057383
p1307
aV22509034
p1308
aV24421039
p1309
aV22139502
p1310
aV15557737
p1311
aV20855724
p1312
aV17608794
p1313
aV19701461
p1314
asS'21811229'
p1315
(lp1316
V11708855
p1317
aV11537060
p1318
aV19597503
p1319
aV8977114
p1320
aV19888215
p1321
aV12952533
p1322
aV17291820
p1323
aV10760244
p1324
aV15522866
p1325
aV12671093
p1326
aV12721848
p1327
aV17932292
p1328
aV12219076
p1329
aV19067749
p1330
aV17267599
p1331
aV12401216
p1332
aV18476868
p1333
aV17593909
p1334
aV14642354
p1335
aV10944149
p1336
aV8220443
p1337
aV19291418
p1338
aV21083885
p1339
aV20221863
p1340
aV15701786
p1341
aV19321003
p1342
aV16663206
p1343
aV16492482
p1344
aV11337403
p1345
aV21404266
p1346
aV1833630
p1347
aV9159949
p1348
aV17406635
p1349
aV19329703
p1350
aV16267098
p1351
aV19431729
p1352
aV20212490
p1353
aV15653810
p1354
aV16569602
p1355
aV16306980
p1356
aV19128495
p1357
aV16289778
p1358
aV17660748
p1359
aV19056727
p1360
aV10725536
p1361
aV16667440
p1362
aV11454754
p1363
aV20057383
p1364
aV11498005
p1365
aV15123830
p1366
aV20836035
p1367
asS'22548736'
p1368
(lp1369
V11934293
p1370
aV11435407
p1371
aV12679064
p1372
aV12714058
p1373
aV12952533
p1374
aV11001586
p1375
aV15189570
p1376
aV15287973
p1377
aV3281659
p1378
aV1897995
p1379
aV8494895
p1380
aV8508809
p1381
aV10427017
p1382
aV15911379
p1383
aV16095938
p1384
aV16738554
p1385
aV17088549
p1386
aV17012394
p1387
aV17267599
p1388
aV17623104
p1389
aV18952873
p1390
aV19128495
p1391
aV19282964
p1392
aV19490098
p1393
aV20029369
p1394
aV19763335
p1395
aV20212490
p1396
aV20693992
p1397
aV20589842
p1398
aV21190580
p1399
aV21886097
p1400
aV21988831
p1401
aV21962087
p1402
aV10601204
p1403
aV12000313
p1404
asS'24774833'
p1405
(lp1406
V22697060
p1407
aV16381885
p1408
aV24031811
p1409
aV21886097
p1410
aV11831469
p1411
aV5122805
p1412
aV12177072
p1413
aV7054151
p1414
aV19399432
p1415
aV22102576
p1416
aV10788522
p1417
aV23940533
p1418
aV15064768
p1419
aV16233377
p1420
aV1886522
p1421
aV20832321
p1422
aV3957870
p1423
aV16469879
p1424
aV18985611
p1425
aV23131418
p1426
aV20594333
p1427
aV20420838
p1428
aV17267599
p1429
aV11014182
p1430
aV17593909
p1431
aV19028900
p1432
aV10422220
p1433
aV14642354
p1434
aV18192387
p1435
aV19762644
p1436
aV17584497
p1437
aV17573341
p1438
aV18853410
p1439
aV21902829
p1440
aV18249414
p1441
aV21711532
p1442
aV18223075
p1443
aV22927779
p1444
aV16772264
p1445
aV19321003
p1446
aV19156357
p1447
aV22952675
p1448
aV10775659
p1449
aV17429571
p1450
aV22367118
p1451
aV16348709
p1452
aV14595782
p1453
aV20212490
p1454
aV16959973
p1455
aV16332763
p1456
aV20024077
p1457
aV20057383
p1458
asS'27783135'
p1459
(lp1460
sS'23349810'
p1461
(lp1462
V9414323
p1463
aV11175725
p1464
aV12073338
p1465
aV17727659
p1466
aV17684710
p1467
aV17001629
p1468
aV11341306
p1469
aV17439666
p1470
aV17609945
p1471
aV15372215
p1472
aV17105650
p1473
aV18846089
p1474
aV11246024
p1475
aV16646809
p1476
aV11956751
p1477
aV1523884
p1478
aV18191255
p1479
aV1544568
p1480
aV18344340
p1481
aV12566402
p1482
aV16472304
p1483
aV10514248
p1484
aV18638364
p1485
aV16893960
p1486
aV16457616
p1487
aV16375763
p1488
aV18555717
p1489
aV16289778
p1490
aV17972330
p1491
aV10862876
p1492
aV18687109
p1493
aV15197165
p1494
aV19200357
p1495
asS'23849719'
p1496
(lp1497
V16381885
p1498
aV19660986
p1499
aV21755356
p1500
aV17062565
p1501
aV21572414
p1502
aV22715155
p1503
aV19888215
p1504
aV19116616
p1505
aV20595611
p1506
aV20876091
p1507
aV18536691
p1508
aV21559344
p1509
aV21969677
p1510
aV20534544
p1511
aV18645197
p1512
aV21704063
p1513
aV19067749
p1514
aV15572364
p1515
aV18340442
p1516
aV19282977
p1517
aV10716907
p1518
aV17267599
p1519
aV22041191
p1520
aV21909251
p1521
aV18937252
p1522
aV15778709
p1523
aV22765044
p1524
aV18483615
p1525
aV21224223
p1526
aV20890966
p1527
aV12432395
p1528
aV16772023
p1529
aV22142339
p1530
aV22146999
p1531
aV21115436
p1532
aV18621757
p1533
aV14563875
p1534
aV21943889
p1535
aV17584497
p1536
aV22367118
p1537
aV18239081
p1538
aV22686345
p1539
aV11701654
p1540
aV15240442
p1541
aV20955552
p1542
aV20969759
p1543
aV20823849
p1544
aV21102456
p1545
aV20037589
p1546
aV20090895
p1547
aV17012394
p1548
aV20959820
p1549
aV20191329
p1550
aV20041200
p1551
aV15962337
p1552
aV17406294
p1553
aV17088549
p1554
aV20959003
p1555
aV15342562
p1556
aV21694718
p1557
aV20589842
p1558
aV19282964
p1559
aV22025222
p1560
aV21266494
p1561
aV14985762
p1562
aV17202167
p1563
aV20057383
p1564
aV19229310
p1565
aV21962087
p1566
asS'22119273'
p1567
(lp1568
sS'25329157'
p1569
(lp1570
V12952533
p1571
aV23194418
p1572
aV14617778
p1573
aV15197467
p1574
aV15197165
p1575
aV15494745
p1576
aV270744
p1577
aV2231712
p1578
aV9521918
p1579
aV15547264
p1580
aV16214803
p1581
aV16311593
p1582
aV16407165
p1583
aV16839195
p1584
aV17215359
p1585
aV17462086
p1586
aV17593909
p1587
aV17584497
p1588
aV17573341
p1589
aV18452587
p1590
aV18840283
p1591
aV19282964
p1592
aV19376871
p1593
aV19555510
p1594
aV19830716
p1595
aV20011109
p1596
aV19946878
p1597
aV19850718
p1598
aV20003240
p1599
aV20057383
p1600
aV10805808
p1601
aV11567142
p1602
aV11578926
p1603
aV11805338
p1604
aV11952893
p1605
aV12136097
p1606
aV12169551
p1607
aV12353619
p1608
aV12432395
p1609
aV12519996
p1610
aV12538249
p1611
aV12657046
p1612
aV12682299
p1613
aV12700248
p1614
aV20003500
p1615
aV20212490
p1616
aV20489017
p1617
aV20426874
p1618
aV20589842
p1619
aV20802497
p1620
aV21886097
p1621
aV21846360
p1622
aV22080510
p1623
aV22139506
p1624
aV22367118
p1625
aV22960854
p1626
aV23417799
p1627
aV23555215
p1628
aV23935056
p1629
aV14642354
p1630
asS'21962087'
p1631
(lp1632
V17543097
p1633
aV17580095
p1634
aV17584497
p1635
aV17882155
p1636
aV18158299
p1637
aV18711341
p1638
aV18940858
p1639
aV19116616
p1640
aV19282964
p1641
aV19357639
p1642
aV19357641
p1643
aV19284618
p1644
aV10567213
p1645
aV10722730
p1646
aV11082198
p1647
aV11356164
p1648
aV11704268
p1649
aV11752250
p1650
aV12475972
p1651
aV12633501
p1652
aV14642354
p1653
aV14718379
p1654
aV15075390
p1655
aV14718373
p1656
aV15197165
p1657
aV15262797
p1658
aV15287973
p1659
aV15479782
p1660
aV4933108
p1661
aV6819292
p1662
aV3534538
p1663
aV3356710
p1664
aV2768261
p1665
aV2010546
p1666
aV1679347
p1667
aV19425150
p1668
aV19597503
p1669
aV19756045
p1670
aV19888215
p1671
aV20001958
p1672
aV19935659
p1673
aV20057383
p1674
aV20118918
p1675
aV20212490
p1676
aV20369014
p1677
aV20426874
p1678
aV20661448
p1679
aV20589842
p1680
aV20823849
p1681
aV20727158
p1682
aV20802497
p1683
aV20957118
p1684
aV20959820
p1685
aV20959003
p1686
aV21115436
p1687
aV21811229
p1688
aV1946389
p1689
aV8993539
p1690
aV9693963
p1691
aV9847135
p1692
aV9852127
p1693
aV15637255
p1694
aV15531608
p1695
aV15572364
p1696
aV15903248
p1697
aV16214803
p1698
aV16237010
p1699
aV16418748
p1700
aV16507154
p1701
aV16319065
p1702
aV16571130
p1703
aV16820779
p1704
aV17088549
p1705
aV17202168
p1706
aV17267599
p1707
aV17406635
p1708
asS'23704901'
p1709
(lp1710
V19754970
p1711
aV20080587
p1712
aV20486930
p1713
aV20731870
p1714
aV20233082
p1715
aV19249205
p1716
aV19356237
p1717
aV21092312
p1718
aV21036868
p1719
aV21059682
p1720
aV21062828
p1721
aV21245845
p1722
aV10592255
p1723
aV11386933
p1724
aV12160095
p1725
aV12543140
p1726
aV12565943
p1727
aV12824330
p1728
aV11001586
p1729
aV14759262
p1730
aV15027865
p1731
aV15027866
p1732
aV6606682
p1733
aV2672462
p1734
aV2231712
p1735
aV9150411
p1736
aV9862811
p1737
aV10325427
p1738
aV10480925
p1739
aV10493868
p1740
aV13717628
p1741
aV14325885
p1742
aV15550942
p1743
aV15608167
p1744
aV15980437
p1745
aV16381955
p1746
aV16328855
p1747
aV17031533
p1748
aV17034125
p1749
aV16704343
p1750
aV21382593
p1751
aV21515412
p1752
aV21713281
p1753
aV21948594
p1754
aV22161221
p1755
aV22275868
p1756
aV22355343
p1757
aV22125297
p1758
aV22300758
p1759
aV22432037
p1760
aV22662210
p1761
aV22540944
p1762
aV23028286
p1763
aV22999913
p1764
aV17129827
p1765
aV17159923
p1766
aV17215359
p1767
aV17348836
p1768
aV17406635
p1769
aV17846036
p1770
aV18048412
p1771
aV18056714
p1772
aV18426954
p1773
aV18600222
p1774
aV18681788
p1775
aV18974178
p1776
aV19116616
p1777
aV19214212
p1778
aV19498078
p1779
asS'28242343'
p1780
(lp1781
sS'17584497'
p1782
(lp1783
V11175725
p1784
aV16507154
p1785
aV11481338
p1786
aV11842435
p1787
aV16571130
p1788
aV16772023
p1789
aV17088549
p1790
aV17123434
p1791
aV11983710
p1792
aV12142430
p1793
aV12169551
p1794
aV12704152
p1795
aV12714058
p1796
aV12952533
p1797
aV15193309
p1798
aV15197165
p1799
aV15189570
p1800
aV15262797
p1801
aV8805245
p1802
aV9254694
p1803
aV9278503
p1804
aV10224113
p1805
aV15608210
p1806
aV16381880
p1807
aV16381923
p1808
aV16299075
p1809
aV11329290
p1810
asS'18767192'
p1811
(lp1812
V15640230
p1813
aV8241405
p1814
aV12867463
p1815
aV11708855
p1816
aV16347502
p1817
aV16946257
p1818
aV16571130
p1819
aV10592173
p1820
aV17016516
p1821
aV11175725
p1822
aV16772023
p1823
aV16381841
p1824
aV1785927
p1825
aV12952533
p1826
aV9278503
p1827
aV16822574
p1828
aV10592255
p1829
aV2719476
p1830
aV16261177
p1831
aV12070452
p1832
aV10191392
p1833
aV11466286
p1834
aV18595046
p1835
aV10483106
p1836
aV11473602
p1837
aV11479309
p1838
aV10581430
p1839
aV11752249
p1840
aV8550525
p1841
aV24039
p1842
aV7961393
p1843
aV18551704
p1844
aV15755956
p1845
aV11601609
p1846
aV17584497
p1847
aV17573341
p1848
aV8743688
p1849
aV11289788
p1850
aV17135193
p1851
aV238949
p1852
aV12732555
p1853
aV16169729
p1854
aV11781809
p1855
aV12714058
p1856
aV14681450
p1857
aV16155945
p1858
aV14665680
p1859
aV17150997
p1860
aV12730377
p1861
aV15659246
p1862
aV4568761
p1863
aV16346149
p1864
aV11418146
p1865
aV8537297
p1866
aV16381888
p1867
aV12566402
p1868
aV15247105
p1869
aV9384377
p1870
aV3540574
p1871
aV12215812
p1872
aV8706750
p1873
aV3119567
p1874
aV17123434
p1875
aV8113186
p1876
aV8043597
p1877
aV6124533
p1878
aV15752426
p1879
aV16348821
p1880
aV15489308
p1881
aV18587795
p1882
aV17603872
p1883
aV12449427
p1884
aV11889105
p1885
aV16895435
p1886
aV11125067
p1887
aV7797557
p1888
aV16738551
p1889
aV16349164
p1890
aV15059661
p1891
aV17088549
p1892
aV16381923
p1893
aV16299075
p1894
aV15962336
p1895
aV18553576
p1896
aV6696415
p1897
aV12069492
p1898
aV9473028
p1899
aV12200425
p1900
aV11222605
p1901
aV8431
p1902
aV1548233
p1903
aV17172310
p1904
asS'18767191'
p1905
(lp1906
V8241405
p1907
aV12867463
p1908
aV15882622
p1909
aV17437026
p1910
aV16381841
p1911
aV12057953
p1912
aV12679064
p1913
aV17408794
p1914
aV12952533
p1915
aV9045833
p1916
aV11607175
p1917
aV15028684
p1918
aV16261177
p1919
aV11466286
p1920
aV17137317
p1921
aV10483106
p1922
aV16199581
p1923
aV6999324
p1924
aV15178193
p1925
aV16154652
p1926
aV18767192
p1927
aV15028679
p1928
aV18551704
p1929
aV14708117
p1930
aV16155945
p1931
aV14665680
p1932
aV12730377
p1933
aV15659246
p1934
aV16346149
p1935
aV9244562
p1936
aV10529352
p1937
aV10937935
p1938
aV16881711
p1939
aV3540574
p1940
aV14708125
p1941
aV8113186
p1942
aV18553724
p1943
aV18587795
p1944
aV10514263
p1945
aV12449427
p1946
aV16895435
p1947
aV7576769
p1948
aV15494745
p1949
aV17337545
p1950
aV17088549
p1951
aV16299075
p1952
aV132964
p1953
aV18553576
p1954
aV18553808
p1955
aV18553577
p1956
aV15626710
p1957
aV15197165
p1958
aV16788595
p1959
aV17172310
p1960
aV7961496
p1961
asS'23067238'
p1962
(lp1963
sS'24218219'
p1964
(lp1965
sS'28266498'
p1966
(lp1967
V25848053
p1968
aV19906986
p1969
aV24682869
p1970
aV22300758
p1971
aV18842600
p1972
aV26240352
p1973
aV23712350
p1974
aV17526704
p1975
aV21516114
p1976
aV24163337
p1977
aV20081869
p1978
aV19889094
p1979
aV16573679
p1980
aV19787431
p1981
aV18803686
p1982
aV22865623
p1983
aV23147702
p1984
aV17139324
p1985
aV23050773
p1986
aV21368905
p1987
aV22233419
p1988
aV17410176
p1989
aV22080096
p1990
aV20134428
p1991
aV18192387
p1992
aV14617778
p1993
aV23489027
p1994
aV17038190
p1995
aV19555510
p1996
aV23836869
p1997
aV25156090
p1998
aV19528212
p1999
aV21886097
p2000
aV25793551
p2001
aV22558288
p2002
aV20802497
p2003
aV23690396
p2004
aV24068739
p2005
aV23417797
p2006
aV17873029
p2007
aV10713430
p2008
aV8550201
p2009
aV24225315
p2010
aV24480613
p2011
aV20532210
p2012
aV25775563
p2013
aV25297499
p2014
aV15317763
p2015
aV17406635
p2016
aV22911607
p2017
aV26322631
p2018
aV24413519
p2019
aV25246554
p2020
aV16126452
p2021
aV22158444
p2022
aV21483480
p2023
aV22080510
p2024
aV26578582
p2025
aV17710100
p2026
aV25057820
p2027
aV21646454
p2028
aV21164573
p2029
aV24625893
p2030
aV19249239
p2031
aV17546021
p2032
aV23144661
p2033
aV24039572
p2034
aV16477005
p2035
aV23910799
p2036
aV20057383
p2037
asS'21474551'
p2038
(lp2039
V16246909
p2040
aV16081474
p2041
aV17237053
p2042
aV17526522
p2043
aV17646315
p2044
aV17962297
p2045
aV17965431
p2046
aV18262675
p2047
aV18428772
p2048
aV18362917
p2049
aV18948289
p2050
aV19997069
p2051
aV19820115
p2052
aV18983710
p2053
aV19955237
p2054
aV20134070
p2055
aV20070885
p2056
aV20186266
p2057
aV20482636
p2058
aV20482655
p2059
aV11433356
p2060
aV11752253
p2061
aV11752254
p2062
aV12169551
p2063
aV14602924
p2064
aV5449325
p2065
aV8594595
p2066
aV15723693
p2067
aV16556315
p2068
asS'22207618'
p2069
(lp2070
sS'20712863'
p2071
(lp2072
V17449819
p2073
aV17882155
p2074
aV19755544
p2075
aV17028780
p2076
aV12952533
p2077
aV18536691
p2078
aV15903248
p2079
aV16893953
p2080
aV17129822
p2081
aV18364712
p2082
aV15860428
p2083
aV14597658
p2084
aV12538249
p2085
aV15888675
p2086
aV14757824
p2087
aV17547772
p2088
aV19095898
p2089
aV17267599
p2090
aV17922569
p2091
aV17573341
p2092
aV18077471
p2093
aV17932057
p2094
aV18846089
p2095
aV16155945
p2096
aV17115182
p2097
aV19095900
p2098
aV16986322
p2099
aV20044452
p2100
aV17698493
p2101
aV12566402
p2102
aV15834800
p2103
aV18252737
p2104
aV18062772
p2105
aV11125061
p2106
aV15489308
p2107
aV19376871
p2108
aV18986839
p2109
aV11277707
p2110
aV11522199
p2111
aV11034217
p2112
aV15542455
p2113
aV10805808
p2114
aV17031533
p2115
aV19010556
p2116
aV19214212
p2117
aV16333295
p2118
aV20057383
p2119
aV18697772
p2120
aV18006545
p2121
asS'24712528'
p2122
(lp2123
sS'27186840'
p2124
(lp2125
V24688677
p2126
aV26109480
p2127
aV26244934
p2128
aV22383176
p2129
aV15262934
p2130
aV12240834
p2131
aV19191979
p2132
aV18261238
p2133
aV22719234
p2134
aV26967105
p2135
aV22308420
p2136
aV20802497
p2137
aV25814606
p2138
aV23555215
p2139
aV15910282
p2140
aV18679674
p2141
aV3294162
p2142
aV25806041
p2143
aV23935467
p2144
aV24972703
p2145
aV20057383
p2146
aV27060776
p2147
asS'26566239'
p2148
(lp2149
V22780918
p2150
aV20863289
p2151
aV20483918
p2152
aV24086468
p2153
aV21886097
p2154
aV26491422
p2155
aV16381960
p2156
aV24371155
p2157
aV24812336
p2158
aV16574696
p2159
aV21846501
p2160
aV19946878
p2161
aV24516375
p2162
aV21029416
p2163
aV17510664
p2164
aV21623372
p2165
aV22434830
p2166
aV16941010
p2167
aV25475882
p2168
aV20430689
p2169
aV24811519
p2170
aV22997515
p2171
aV17593909
p2172
aV9545322
p2173
aV23632383
p2174
aV21283140
p2175
aV16950653
p2176
aV17022660
p2177
aV24180668
p2178
aV14595777
p2179
aV21902829
p2180
aV24742179
p2181
aV17932057
p2182
aV18846089
p2183
aV22095399
p2184
aV20802497
p2185
aV1180967
p2186
aV19321003
p2187
aV14506848
p2188
aV24721214
p2189
aV17625511
p2190
aV12169551
p2191
aV22709677
p2192
aV23935056
p2193
aV16606697
p2194
aV20920235
p2195
aV10436161
p2196
aV25329157
p2197
aV9381177
p2198
aV20426874
p2199
aV20498836
p2200
aV25562137
p2201
aV21190580
p2202
aV19564482
p2203
aV22548736
p2204
aV23631471
p2205
aV18687109
p2206
aV14622413
p2207
aV14681452
p2208
aV24678285
p2209
aV18808699
p2210
aV9727030
p2211
aV15197165
p2212
aV26079294
p2213
aV20057383
p2214
aV16204195
p2215
aV22663945
p2216
asS'28103880'
p2217
(lp2218
V24658259
p2219
aV19128495
p2220
aV11711677
p2221
aV17822305
p2222
aV16349432
p2223
aV10805817
p2224
aV21083885
p2225
aV23613453
p2226
aV22403401
p2227
aV9687472
p2228
aV26508635
p2229
aV21356961
p2230
aV24293654
p2231
aV22510989
p2232
aV15299119
p2233
aV12706503
p2234
aV25141288
p2235
aV22529767
p2236
aV20935180
p2237
aV22319433
p2238
aV21811229
p2239
aV10740295
p2240
aV8645235
p2241
aV25869135
p2242
aV12202358
p2243
aV24972068
p2244
aV24280389
p2245
aV26108500
p2246
aV22174252
p2247
aV17965431
p2248
aV15329721
p2249
aV14642354
p2250
aV24225321
p2251
aV26476454
p2252
aV23843751
p2253
aV21886097
p2254
aV25155278
p2255
aV16591901
p2256
aV2231712
p2257
aV24275496
p2258
aV19456868
p2259
aV20044452
p2260
aV12566402
p2261
aV12724375
p2262
aV21268270
p2263
aV27152931
p2264
aV13181867
p2265
aV13671378
p2266
aV26400175
p2267
aV4986297
p2268
aV16751554
p2269
aV20212490
p2270
aV21062828
p2271
aV20562225
p2272
aV25831533
p2273
aV5337756
p2274
aV18795284
p2275
aV20172043
p2276
aV20057383
p2277
aV16397497
p2278
aV5541006
p2279
asS'19190405'
p2280
(lp2281
sS'20421197'
p2282
(lp2283
V19281817
p2284
aV18635573
p2285
aV19874611
p2286
aV19808881
p2287
aV19874610
p2288
aV11034217
p2289
aV11522199
p2290
aV12202830
p2291
aV12538249
p2292
aV12967966
p2293
aV14534167
p2294
aV14559781
p2295
aV14757824
p2296
aV15285901
p2297
aV15572476
p2298
aV16195792
p2299
aV16381885
p2300
aV16337962
p2301
aV16796559
p2302
aV17965431
p2303
aV18077471
p2304
aV18492807
p2305
aV18631021
p2306
aV18436574
p2307
aV19398450
p2308
asS'19597503'
p2309
(lp2310
V11075367
p2311
aV11242119
p2312
aV12538263
p2313
aV12952533
p2314
aV14681372
p2315
aV14990451
p2316
aV19128495
p2317
aV15654321
p2318
aV15743968
p2319
aV16824019
p2320
aV17658902
p2321
aV18846087
p2322
aV19116616
p2323
aV15102470
p2324
asS'24628959'
p2325
(lp2326
V11101318
p2327
aV23188456
p2328
aV11544225
p2329
aV11551473
p2330
aV11774006
p2331
aV15494745
p2332
aV6387704
p2333
aV1436739
p2334
aV8063103
p2335
aV8590661
p2336
aV9351205
p2337
aV13958485
p2338
aV15604828
p2339
aV15930493
p2340
aV16772023
p2341
aV17406635
p2342
aV17216441
p2343
aV18050939
p2344
aV18760356
p2345
aV18698648
p2346
aV18594774
p2347
aV19666133
p2348
aV20057383
p2349
aV20158237
p2350
aV20212490
p2351
aV20150928
p2352
aV20600382
p2353
aV21059201
p2354
aV21097890
p2355
aV21107647
p2356
aV21515217
p2357
aV21544146
p2358
aV21478350
p2359
aV21561673
p2360
aV21670981
p2361
aV22092858
p2362
aV22054827
p2363
aV23705993
p2364
aV11358695
p2365
asS'26542446'
p2366
(lp2367
sS'28217746'
p2368
(lp2369
V27055267
p2370
aV22054827
p2371
aV24551039
p2372
aV25352553
p2373
aV20979621
p2374
aV17252281
p2375
aV25873626
p2376
aV26168400
p2377
aV25302562
p2378
aV22367118
p2379
aV21320580
p2380
aV25605792
p2381
aV21886097
p2382
aV16632515
p2383
aV16749936
p2384
aV27152931
p2385
aV21141668
p2386
aV20212490
p2387
aV20646219
p2388
aV16686963
p2389
aV14508477
p2390
asS'21943909'
p2391
(lp2392
V12202358
p2393
aV20709898
p2394
aV12673766
p2395
aV12765837
p2396
aV14580578
p2397
aV14595777
p2398
aV14642354
p2399
aV14617778
p2400
aV15494745
p2401
aV1453697
p2402
aV7986045
p2403
aV15520298
p2404
aV15897462
p2405
aV16199194
p2406
aV16375763
p2407
aV16772264
p2408
aV17215359
p2409
aV17150997
p2410
aV17267599
p2411
aV17406635
p2412
aV17462086
p2413
aV17625511
p2414
aV18218092
p2415
aV18364712
p2416
aV18192387
p2417
aV18392985
p2418
aV18483554
p2419
aV18536691
p2420
aV18574146
p2421
aV18645197
p2422
aV18711341
p2423
aV11997342
p2424
aV18846089
p2425
aV18819722
p2426
aV19067749
p2427
aV19116616
p2428
aV19214212
p2429
aV19399432
p2430
aV19490860
p2431
aV19287049
p2432
aV19588116
p2433
aV19577473
p2434
aV19555510
p2435
aV19690565
p2436
aV19855104
p2437
aV20057383
p2438
aV19955237
p2439
aV20212490
p2440
aV20403172
p2441
aV20124092
p2442
aV20486139
p2443
aV20543878
p2444
aV20540108
p2445
aV20649990
p2446
aV20823844
p2447
aV12415116
p2448
asS'27590448'
p2449
(lp2450
V16446402
p2451
aV22018234
p2452
aV25841013
p2453
aV19888215
p2454
aV19116616
p2455
aV7986045
p2456
aV22465599
p2457
aV16163345
p2458
aV18497287
p2459
aV25130883
p2460
aV22319433
p2461
aV22582016
p2462
aV17475672
p2463
aV22699609
p2464
aV26905627
p2465
aV15608200
p2466
aV23927696
p2467
aV26109480
p2468
aV23022739
p2469
aV25929487
p2470
aV24430943
p2471
aV26542567
p2472
aV23982459
p2473
aV18469830
p2474
aV25901891
p2475
aV18261238
p2476
aV25941371
p2477
aV20383131
p2478
aV22972297
p2479
aV10516118
p2480
aV21886097
p2481
aV24794435
p2482
aV20802497
p2483
aV2231712
p2484
aV21124952
p2485
aV19004872
p2486
aV15831718
p2487
aV23741341
p2488
aV25980407
p2489
aV23898195
p2490
aV17406635
p2491
aV23975157
p2492
aV17353934
p2493
aV25132534
p2494
aV22807668
p2495
aV25184604
p2496
aV24694716
p2497
aV19801464
p2498
aV27239563
p2499
aV26511562
p2500
aV11571135
p2501
aV20057383
p2502
aV10821283
p2503
aV22699610
p2504
asS'28085902'
p2505
(lp2506
V16381885
p2507
aV12534463
p2508
aV21029416
p2509
aV16958757
p2510
aV4997718
p2511
aV25845595
p2512
aV19399432
p2513
aV14580578
p2514
aV27358602
p2515
aV17116241
p2516
aV1610179
p2517
aV19770075
p2518
aV24811519
p2519
aV17483213
p2520
aV22663945
p2521
aV10364169
p2522
aV23455439
p2523
aV18793442
p2524
aV17259313
p2525
aV2821345
p2526
aV18974823
p2527
aV18846089
p2528
aV18261238
p2529
aV20540110
p2530
aV22367118
p2531
aV21886097
p2532
aV20802497
p2533
aV5963505
p2534
aV12534466
p2535
aV23555215
p2536
aV17661516
p2537
aV17616587
p2538
aV20212490
p2539
aV21483480
p2540
aV24970063
p2541
aV13398409
p2542
aV16381923
p2543
aV8368835
p2544
aV20057383
p2545
aV21244678
p2546
aV18697772
p2547
asS'28724354'
p2548
(lp2549
V15183112
p2550
aV25075834
p2551
aV11378031
p2552
aV11781362
p2553
aV12435450
p2554
aV8816746
p2555
aV10722510
p2556
aV25331708
p2557
aV17330044
p2558
aV16731623
p2559
aV11006474
p2560
aV22270182
p2561
aV22704625
p2562
aV27903906
p2563
aV8774709
p2564
aV20160056
p2565
aV26694030
p2566
aV21988831
p2567
aV17202168
p2568
aV24913167
p2569
aV24352242
p2570
aV3886898
p2571
aV17005183
p2572
aV23420506
p2573
aV28357259
p2574
aV22151036
p2575
aV9153195
p2576
aV21172910
p2577
aV25635122
p2578
aV28093455
p2579
aV25473431
p2580
aV24674620
p2581
aV19068099
p2582
aV23593322
p2583
aV11125051
p2584
aV23793264
p2585
aV25395010
p2586
aV19881520
p2587
aV20334617
p2588
aV19218089
p2589
aV11090624
p2590
aV26626103
p2591
aV26759150
p2592
aV25001103
p2593
aV20709898
p2594
aV27466371
p2595
aV25893156
p2596
aV12234732
p2597
aV10954735
p2598
aV21986828
p2599
aV2866244
p2600
aV23116403
p2601
aV21709259
p2602
aV11832955
p2603
aV26215764
p2604
aV26060916
p2605
aV2904149
p2606
aV20823846
p2607
aV16039160
p2608
aV26010448
p2609
aV15037104
p2610
aV16020728
p2611
aV25843709
p2612
aV23345430
p2613
aV18364711
p2614
aV23431146
p2615
aV21912516
p2616
aV19728741
p2617
aV21203490
p2618
aV28027318
p2619
aV12473363
p2620
aV25514047
p2621
aV16840735
p2622
aV8710411
p2623
aV12368864
p2624
aV26355219
p2625
aV5310029
p2626
aV26566239
p2627
aV26476454
p2628
aV27188163
p2629
aV16161998
p2630
aV21810278
p2631
aV8068044
p2632
aV20573956
p2633
aV17822535
p2634
aV25108687
p2635
aV11814579
p2636
aV21998306
p2637
aV25605792
p2638
aV20863228
p2639
aV15848278
p2640
aV28111098
p2641
aV27768886
p2642
aV24335485
p2643
aV17060533
p2644
aV23935500
p2645
aV24880488
p2646
aV27572396
p2647
aV22860901
p2648
aV18003657
p2649
aV25367300
p2650
aV26854499
p2651
aV3157797
p2652
aV17406635
p2653
aV23173711
p2654
aV25502314
p2655
aV20221395
p2656
aV23763941
p2657
aV28333921
p2658
aV27502771
p2659
aV10931172
p2660
aV16170412
p2661
aV12824418
p2662
aV11814576
p2663
aV12931192
p2664
aV19360125
p2665
aV27832198
p2666
aV19064257
p2667
aV19871591
p2668
aV12364805
p2669
aV20212490
p2670
aV25352601
p2671
aV25599401
p2672
aV25264100
p2673
aV25874676
p2674
aV26001086
p2675
aV26858419
p2676
aV8304987
p2677
aV19640844
p2678
aV25695257
p2679
aV15047998
p2680
aV15078855
p2681
aV16707276
p2682
aV21385409
p2683
aV25502316
p2684
aV19591881
p2685
aV25919029
p2686
aV6348537
p2687
aV3109383
p2688
aV17276140
p2689
aV19116658
p2690
aV16573697
p2691
aV20057383
p2692
aV22937810
p2693
aV26150544
p2694
aV17715365
p2695
aV25831536
p2696
aV16337634
p2697
aV20920235
p2698
aV18644147
p2699
asS'24222407'
p2700
(lp2701
sS'20444302'
p2702
(lp2703
sS'23892182'
p2704
(lp2705
V23223453
p2706
aV21331438
p2707
aV22227532
p2708
aV15470465
p2709
aV14595858
p2710
aV16841068
p2711
aV22965049
p2712
aV22963408
p2713
aV22570597
p2714
aV21456628
p2715
aV15718163
p2716
aV21629293
p2717
aV21624498
p2718
aV10587658
p2719
aV23067238
p2720
aV19487246
p2721
aV4830198
p2722
aV18252821
p2723
aV17882155
p2724
aV21391558
p2725
aV17700859
p2726
aV21687783
p2727
aV17437026
p2728
aV22699794
p2729
aV21959288
p2730
aV23175637
p2731
aV12740584
p2732
aV20190787
p2733
aV22644330
p2734
aV17922843
p2735
aV21561673
p2736
aV20717559
p2737
aV23132118
p2738
aV22235860
p2739
aV23079505
p2740
aV23231771
p2741
aV16319876
p2742
aV22729179
p2743
aV22573601
p2744
aV21572414
p2745
aV22306209
p2746
aV23431559
p2747
aV22627006
p2748
aV20957118
p2749
aV23314297
p2750
aV22890819
p2751
aV21402949
p2752
aV23325797
p2753
aV22969169
p2754
aV17620040
p2755
aV22188344
p2756
aV23047651
p2757
aV23442083
p2758
aV22978754
p2759
aV21154879
p2760
aV21035178
p2761
aV22142312
p2762
aV9927716
p2763
aV23121761
p2764
aV22672124
p2765
aV18184107
p2766
aV16442279
p2767
aV22222943
p2768
aV22976213
p2769
aV22727112
p2770
aV21149340
p2771
aV22851531
p2772
aV21701501
p2773
aV17318209
p2774
aV22920415
p2775
aV22283470
p2776
aV20630880
p2777
aV20967426
p2778
aV16608839
p2779
aV22546835
p2780
aV21081972
p2781
aV12180966
p2782
aV23391889
p2783
aV16478464
p2784
aV17463081
p2785
aV19648136
p2786
aV20443163
p2787
aV22436749
p2788
aV23258413
p2789
aV17195475
p2790
aV22903296
p2791
aV20113715
p2792
aV23207804
p2793
aV18054049
p2794
aV22448154
p2795
aV21632543
p2796
aV23032445
p2797
aV22020181
p2798
aV11062433
p2799
aV20713038
p2800
aV19907483
p2801
aV19359585
p2802
aV23373753
p2803
aV18582974
p2804
aV22161355
p2805
aV22586093
p2806
aV22699233
p2807
aV21236981
p2808
aV23147668
p2809
aV21720319
p2810
aV23224572
p2811
aV17198971
p2812
aV23235874
p2813
aV15328044
p2814
aV23195852
p2815
aV22823568
p2816
aV15196499
p2817
aV19399433
p2818
aV15499023
p2819
aV22221059
p2820
aV22770225
p2821
aV18057018
p2822
aV22012626
p2823
aV22978366
p2824
aV23131208
p2825
aV23039714
p2826
aV22713172
p2827
aV23190300
p2828
aV16553314
p2829
aV22640696
p2830
aV21083105
p2831
aV23023260
p2832
aV23022739
p2833
aV22426639
p2834
aV22252984
p2835
aV22722194
p2836
aV17373823
p2837
aV21164525
p2838
aV22348240
p2839
aV22203775
p2840
aV23377891
p2841
aV23140241
p2842
aV19049901
p2843
aV17968707
p2844
aV21164512
p2845
aV22305969
p2846
aV16341061
p2847
aV21414992
p2848
aV23161693
p2849
aV23092136
p2850
aV20393581
p2851
aV17267599
p2852
aV17222009
p2853
aV17173669
p2854
aV19381358
p2855
aV22695696
p2856
aV19200003
p2857
aV15919996
p2858
aV23210477
p2859
aV19337271
p2860
aV21329461
p2861
aV20677029
p2862
aV17971784
p2863
aV23360254
p2864
aV23216785
p2865
aV21757467
p2866
aV23072438
p2867
aV20550936
p2868
aV17032683
p2869
aV19935646
p2870
aV22834945
p2871
aV21890679
p2872
aV21704158
p2873
aV21311067
p2874
aV22020553
p2875
aV23046263
p2876
aV23455439
p2877
aV22320313
p2878
aV20469857
p2879
aV22405899
p2880
aV17439666
p2881
aV22946681
p2882
aV17045684
p2883
aV21325300
p2884
aV18202690
p2885
aV16319894
p2886
aV21962087
p2887
aV23323971
p2888
aV22971835
p2889
aV16199500
p2890
aV21456517
p2891
aV21142260
p2892
aV22782856
p2893
aV20236959
p2894
aV21059217
p2895
aV20403172
p2896
aV22144361
p2897
aV23300405
p2898
aV15953932
p2899
aV22962330
p2900
aV22429650
p2901
aV20649990
p2902
aV20339444
p2903
aV21560018
p2904
aV22142339
p2905
aV22832350
p2906
aV23393265
p2907
aV20520604
p2908
aV15286737
p2909
aV2680602
p2910
aV18331064
p2911
aV22023736
p2912
aV22406961
p2913
aV20935044
p2914
aV22119097
p2915
aV23220386
p2916
aV22366554
p2917
aV18846089
p2918
aV22823888
p2919
aV21949492
p2920
aV20608743
p2921
aV12611808
p2922
aV22378269
p2923
aV23109552
p2924
aV23118012
p2925
aV23046267
p2926
aV22281772
p2927
aV21461040
p2928
aV19636438
p2929
aV21566122
p2930
aV22844400
p2931
aV9744112
p2932
aV22468890
p2933
aV22179068
p2934
aV22661132
p2935
aV18843342
p2936
aV20835998
p2937
aV20046865
p2938
aV22833710
p2939
aV21949491
p2940
aV23103705
p2941
aV22228769
p2942
aV22095399
p2943
aV20803507
p2944
aV22194963
p2945
aV21466230
p2946
aV19170513
p2947
aV23258412
p2948
aV22076706
p2949
aV18711341
p2950
aV16236429
p2951
aV20802497
p2952
aV21495048
p2953
aV17395091
p2954
aV21867520
p2955
aV21049934
p2956
aV14679360
p2957
aV23109553
p2958
aV21886157
p2959
aV18356193
p2960
aV22576654
p2961
aV21123256
p2962
aV17556793
p2963
aV23157406
p2964
aV22246674
p2965
aV19562197
p2966
aV23142542
p2967
aV22269136
p2968
aV23102864
p2969
aV19133145
p2970
aV10910359
p2971
aV21538458
p2972
aV23393554
p2973
aV20531467
p2974
aV14696046
p2975
aV16680201
p2976
aV22351176
p2977
aV16847258
p2978
aV22607863
p2979
aV20936122
p2980
aV22351177
p2981
aV22661919
p2982
aV22683805
p2983
aV21558479
p2984
aV21664817
p2985
aV22166170
p2986
aV22284781
p2987
aV18936752
p2988
aV22450380
p2989
aV17199125
p2990
aV22148170
p2991
aV21221096
p2992
aV22971357
p2993
aV23180789
p2994
aV20957472
p2995
aV22610447
p2996
aV20007013
p2997
aV22815171
p2998
aV21337642
p2999
aV23085877
p3000
aV23112813
p3001
aV19234110
p3002
aV18309312
p3003
aV21475195
p3004
aV22689914
p3005
aV17123434
p3006
aV23312283
p3007
aV21963522
p3008
aV23188714
p3009
aV12581712
p3010
aV20934866
p3011
aV21241816
p3012
aV19668871
p3013
aV21819238
p3014
aV23307777
p3015
aV22309680
p3016
aV17129827
p3017
aV19348698
p3018
aV15388866
p3019
aV23138306
p3020
aV21671558
p3021
aV20581821
p3022
aV15568024
p3023
aV22999913
p3024
aV22503618
p3025
aV18075678
p3026
aV20176062
p3027
aV11135551
p3028
aV17301733
p3029
aV22102985
p3030
aV19323472
p3031
aV22417173
p3032
aV21212881
p3033
aV23552054
p3034
aV21689470
p3035
aV20529914
p3036
aV22289213
p3037
aV22131085
p3038
aV23384594
p3039
aV19495910
p3040
aV15970265
p3041
aV20118361
p3042
aV22915023
p3043
aV20823844
p3044
aV23162084
p3045
aV22612383
p3046
aV22892193
p3047
aV21999653
p3048
aV22069723
p3049
aV20823323
p3050
aV22768229
p3051
aV20570001
p3052
aV22101153
p3053
aV14559783
p3054
aV22841915
p3055
aV15109811
p3056
aV23064226
p3057
aV22956899
p3058
aV22823282
p3059
aV19763339
p3060
aV22615553
p3061
aV22593721
p3062
aV22867903
p3063
aV22286016
p3064
aV22424434
p3065
aV21600757
p3066
aV18936753
p3067
aV20520606
p3068
aV18428092
p3069
aV23090085
p3070
aV20168317
p3071
aV23297175
p3072
aV18727146
p3073
aV19215296
p3074
aV20117850
p3075
aV23142545
p3076
aV23314354
p3077
aV22296988
p3078
aV17182837
p3079
aV19881490
p3080
aV22928018
p3081
aV9723817
p3082
aV22718433
p3083
aV22183149
p3084
aV20668676
p3085
aV23396507
p3086
aV23447050
p3087
aV22588484
p3088
aV20351247
p3089
aV23103988
p3090
aV23246232
p3091
aV10553282
p3092
aV23212105
p3093
aV17330071
p3094
aV15520792
p3095
aV22967080
p3096
aV23025763
p3097
aV20188855
p3098
aV20837882
p3099
aV22163331
p3100
aV16986257
p3101
aV22041788
p3102
aV23458856
p3103
aV22027554
p3104
aV26229523
p3105
aV19840866
p3106
aV22110018
p3107
aV22678283
p3108
aV22701716
p3109
aV22309310
p3110
aV23060735
p3111
aV17172310
p3112
aV22447740
p3113
aV17462086
p3114
aV22970429
p3115
aV23184849
p3116
aV21244678
p3117
aV21694718
p3118
aV18056069
p3119
aV23062430
p3120
aV23390245
p3121
asS'27152931'
p3122
(lp3123
V19487243
p3124
aV22054827
p3125
aV21886097
p3126
aV20664636
p3127
aV11152613
p3128
aV21811229
p3129
aV24050924
p3130
aV24371155
p3131
aV27009723
p3132
aV26313928
p3133
aV22332784
p3134
aV18811941
p3135
aV18183306
p3136
aV24497502
p3137
aV2454592
p3138
aV23463245
p3139
aV24733415
p3140
aV8944766
p3141
aV12692324
p3142
aV21959131
p3143
aV10891285
p3144
aV16664694
p3145
aV11258480
p3146
aV20430689
p3147
aV26168400
p3148
aV15223320
p3149
aV15459382
p3150
aV15461428
p3151
aV25302562
p3152
aV16577680
p3153
aV22065419
p3154
aV23455439
p3155
aV18923393
p3156
aV23209127
p3157
aV17135193
p3158
aV23843751
p3159
aV23177152
p3160
aV20959003
p3161
aV21755001
p3162
aV26319892
p3163
aV22308420
p3164
aV10677844
p3165
aV17658702
p3166
aV15849303
p3167
aV20044452
p3168
aV24225317
p3169
aV25566296
p3170
aV12356911
p3171
aV21365259
p3172
aV21562560
p3173
aV13671378
p3174
aV26614658
p3175
aV25548193
p3176
aV23555215
p3177
aV22367118
p3178
aV20426874
p3179
aV20212490
p3180
aV22369158
p3181
aV19082585
p3182
aV27007317
p3183
aV17484021
p3184
aV24871200
p3185
aV23631471
p3186
aV25043335
p3187
aV24325901
p3188
aV25897682
p3189
aV25489020
p3190
aV20057383
p3191
aV26590126
p3192
aV25348405
p3193
aV24214961
p3194
aV25763104
p3195
aV18028870
p3196
asS'23110428'
p3197
(lp3198
V21067998
p3199
aV20932952
p3200
aV21443633
p3201
aV20107021
p3202
aV19646250
p3203
aV15630516
p3204
aV22127870
p3205
aV21811229
p3206
aV18050944
p3207
aV14996223
p3208
aV17350212
p3209
aV17681626
p3210
aV15038961
p3211
aV17442674
p3212
aV20404489
p3213
aV21749710
p3214
aV21746901
p3215
aV12062419
p3216
aV18183306
p3217
aV22325894
p3218
aV20709142
p3219
aV22209109
p3220
aV22241476
p3221
aV17932292
p3222
aV20385544
p3223
aV17115212
p3224
aV21963247
p3225
aV21199890
p3226
aV18480101
p3227
aV19920124
p3228
aV15541746
p3229
aV20225336
p3230
aV20663661
p3231
aV15231801
p3232
aV19850718
p3233
aV20492649
p3234
aV8645235
p3235
aV21498682
p3236
aV20681642
p3237
aV12193620
p3238
aV18299247
p3239
aV21637328
p3240
aV20950480
p3241
aV11158573
p3242
aV20852019
p3243
aV22043295
p3244
aV14695922
p3245
aV21266071
p3246
aV20421458
p3247
aV22257857
p3248
aV21945931
p3249
aV16081474
p3250
aV20609580
p3251
aV22217731
p3252
aV21401935
p3253
aV12405558
p3254
aV19584015
p3255
aV18539450
p3256
aV22037181
p3257
aV14502990
p3258
aV20655798
p3259
aV15325581
p3260
aV14725863
p3261
aV20084111
p3262
aV21556065
p3263
aV10852933
p3264
aV22325862
p3265
aV21620688
p3266
aV22137751
p3267
aV16492482
p3268
aV17332020
p3269
aV20537123
p3270
aV21915640
p3271
aV18803844
p3272
aV17526522
p3273
aV20015972
p3274
aV21351878
p3275
aV9746350
p3276
aV20587772
p3277
aV18221809
p3278
aV20615387
p3279
aV20562225
p3280
aV15140833
p3281
aV20615690
p3282
aV12137537
p3283
aV20031983
p3284
aV11818558
p3285
aV19737799
p3286
aV19880382
p3287
aV21549959
p3288
aV12013278
p3289
aV19063932
p3290
aV12946407
p3291
aV20399634
p3292
aV10508846
p3293
aV21747749
p3294
aV20705610
p3295
aV20616280
p3296
aV15215578
p3297
aV10620354
p3298
aV21928291
p3299
aV19793600
p3300
aV19920128
p3301
aV22123257
p3302
aV19447673
p3303
aV19575586
p3304
asS'28561030'
p3305
(lp3306
V25260700
p3307
aV21964329
p3308
aV15755952
p3309
aV24482762
p3310
aV23109570
p3311
aV25157147
p3312
aV26771930
p3313
aV12153013
p3314
aV27029554
p3315
aV22661972
p3316
aV10746759
p3317
aV20190088
p3318
aV24267221
p3319
aV22675592
p3320
aV22800682
p3321
aV23071270
p3322
aV25440056
p3323
aV26527717
p3324
aV23800136
p3325
aV26546518
p3326
aV18516045
p3327
aV11904428
p3328
aV26673716
p3329
aV20371929
p3330
aV22170421
p3331
aV18081590
p3332
aV25414356
p3333
aV22174252
p3334
aV27112128
p3335
aV20448175
p3336
aV26336640
p3337
aV9070434
p3338
aV25367004
p3339
aV26076725
p3340
aV19403257
p3341
aV19948857
p3342
aV20211023
p3343
aV25245398
p3344
aV25746962
p3345
aV24302732
p3346
aV24778240
p3347
aV24270786
p3348
aV7747941
p3349
aV18397776
p3350
aV23210799
p3351
aV23097129
p3352
aV25540838
p3353
aV27340816
p3354
aV10440372
p3355
aV23301019
p3356
aV17546966
p3357
aV16598256
p3358
aV22763288
p3359
aV8302217
p3360
aV10820012
p3361
aV25883286
p3362
aV27273460
p3363
aV11496667
p3364
aV25857222
p3365
aV17526785
p3366
aV21903629
p3367
aV26454094
p3368
aV27311813
p3369
aV15701695
p3370
aV25977477
p3371
aV25501888
p3372
aV15096640
p3373
asS'20807838'
p3374
(lp3375
V5420325
p3376
aV15375149
p3377
aV1944532
p3378
aV1731067
p3379
aV8346441
p3380
aV7584402
p3381
aV10487864
p3382
aV15568985
p3383
aV15644202
p3384
aV15653829
p3385
aV15701760
p3386
aV15760844
p3387
aV16207904
p3388
aV16105899
p3389
aV16301543
p3390
aV16477324
p3391
aV16840530
p3392
aV16873524
p3393
aV17438293
p3394
aV17488841
p3395
aV17646310
p3396
aV17943116
p3397
aV17845071
p3398
aV17993682
p3399
aV18158297
p3400
aV18585360
p3401
aV18701645
p3402
aV19056824
p3403
aV19076237
p3404
aV19082769
p3405
aV19415112
p3406
aV19482960
p3407
aV19507285
p3408
aV19680427
p3409
aV19920124
p3410
aV19710709
p3411
aV19731374
p3412
aV20180275
p3413
aV20203603
p3414
aV20102603
p3415
aV10637320
p3416
aV10734204
p3417
aV11262934
p3418
aV11465053
p3419
aV11473011
p3420
aV11997340
p3421
aV12015879
p3422
aV12368244
p3423
aV12627170
p3424
aV12748633
p3425
aV12824370
p3426
aV12775844
p3427
aV14572541
p3428
aV14627811
p3429
aV14668220
p3430
aV14672977
p3431
aV14992514
p3432
aV14992516
p3433
aV15173116
p3434
aV15231752
p3435
aV2193692
p3436
asS'28479069'
p3437
(lp3438
sS'12801875'
p3439
(lp3440
sS'26592771'
p3441
(lp3442
V11544364
p3443
aV12351682
p3444
aV24454426
p3445
aV14623019
p3446
aV24367711
p3447
aV23137768
p3448
aV6798439
p3449
aV17320480
p3450
aV21406205
p3451
aV8889320
p3452
aV2717219
p3453
aV17170577
p3454
aV22206037
p3455
aV10785375
p3456
aV18486941
p3457
aV17188763
p3458
aV18364711
p3459
aV15340383
p3460
aV13129524
p3461
aV19100863
p3462
aV22041763
p3463
aV2128337
p3464
aV12049412
p3465
aV15639138
p3466
aV18625337
p3467
aV15255887
p3468
aV15389842
p3469
aV7770070
p3470
aV25478805
p3471
aV9425822
p3472
aV3666964
p3473
aV15738951
p3474
aV16103133
p3475
aV5401460
p3476
aV10099012
p3477
aV5642081
p3478
aV14550295
p3479
aV20109253
p3480
aV15463727
p3481
aV10465052
p3482
asS'20488753'
p3483
(lp3484
sS'24957377'
p3485
(lp3486
V16000019
p3487
aV20335275
p3488
aV13351639
p3489
aV17882155
p3490
aV19464354
p3491
aV19888215
p3492
aV18177721
p3493
aV20352489
p3494
aV19416711
p3495
aV19714220
p3496
aV22262476
p3497
aV22198197
p3498
aV20393581
p3499
aV17267599
p3500
aV20957118
p3501
aV14642354
p3502
aV18483554
p3503
aV22142339
p3504
aV18846089
p3505
aV14594721
p3506
aV9265774
p3507
aV21886097
p3508
aV18711341
p3509
aV21804546
p3510
aV20823849
p3511
aV21102456
p3512
aV21815690
p3513
aV21423717
p3514
aV20959820
p3515
aV20369014
p3516
aV19460998
p3517
aV20212490
p3518
aV15860371
p3519
aV20823844
p3520
aV21847114
p3521
aV18473803
p3522
aV21694718
p3523
aV20649990
p3524
aV17408509
p3525
aV20057383
p3526
aV18041668
p3527
asS'19008181'
p3528
(lp3529
sS'18468557'
p3530
(lp3531
sS'17388807'
p3532
(lp3533
sS'22185482'
p3534
(lp3535
V17700859
p3536
aV11685177
p3537
aV18218092
p3538
aV18392985
p3539
aV19141168
p3540
aV19218833
p3541
aV19401675
p3542
aV19356237
p3543
aV19445715
p3544
aV19597503
p3545
aV14642354
p3546
aV8761851
p3547
aV15710883
p3548
aV15908506
p3549
aV16631753
p3550
aV16951216
p3551
aV17267599
p3552
aV17406635
p3553
aV17373823
p3554
aV17652176
p3555
aV18295713
p3556
aV10751092
p3557
aV14985762
p3558
aV21627340
p3559
aV20959003
p3560
aV20959820
p3561
aV20709898
p3562
aV20823844
p3563
aV20430689
p3564
aV20212490
p3565
aV19888215
p3566
as.